   1              		.cpu cortex-m4
   2              		.eabi_attribute 27, 1
   3              		.eabi_attribute 20, 1
   4              		.eabi_attribute 21, 1
   5              		.eabi_attribute 23, 3
   6              		.eabi_attribute 24, 1
   7              		.eabi_attribute 25, 1
   8              		.eabi_attribute 26, 1
   9              		.eabi_attribute 30, 2
  10              		.eabi_attribute 34, 1
  11              		.eabi_attribute 18, 4
  12              		.file	"xmc4_scu.c"
  13              		.text
  14              	.Ltext0:
  15              		.cfi_sections	.debug_frame
  16              		.section	.text.XMC_SCU_INTERRUPT_EnableEvent,"ax",%progbits
  17              		.align	1
  18              		.p2align 2,,3
  19              		.global	XMC_SCU_INTERRUPT_EnableEvent
  20              		.arch armv7e-m
  21              		.syntax unified
  22              		.thumb
  23              		.thumb_func
  24              		.fpu fpv4-sp-d16
  26              	XMC_SCU_INTERRUPT_EnableEvent:
  27              	.LVL0:
  28              	.LFB163:
  29              		.file 1 "/opt/XMClib/XMC_Peripheral_Library_v2.1.16/XMCLib/src/xmc4_scu.c"
   1:/opt/XMClib/XMC_Peripheral_Library_v2.1.16/XMCLib/src/xmc4_scu.c **** /**
   2:/opt/XMClib/XMC_Peripheral_Library_v2.1.16/XMCLib/src/xmc4_scu.c ****  * @file xmc4_scu.c
   3:/opt/XMClib/XMC_Peripheral_Library_v2.1.16/XMCLib/src/xmc4_scu.c ****  * @date 2016-06-15
   4:/opt/XMClib/XMC_Peripheral_Library_v2.1.16/XMCLib/src/xmc4_scu.c ****  *
   5:/opt/XMClib/XMC_Peripheral_Library_v2.1.16/XMCLib/src/xmc4_scu.c ****  * @cond
   6:/opt/XMClib/XMC_Peripheral_Library_v2.1.16/XMCLib/src/xmc4_scu.c ****  **************************************************************************************************
   7:/opt/XMClib/XMC_Peripheral_Library_v2.1.16/XMCLib/src/xmc4_scu.c ****  * XMClib v2.1.16 - XMC Peripheral Driver Library 
   8:/opt/XMClib/XMC_Peripheral_Library_v2.1.16/XMCLib/src/xmc4_scu.c ****  *
   9:/opt/XMClib/XMC_Peripheral_Library_v2.1.16/XMCLib/src/xmc4_scu.c ****  * Copyright (c) 2015-2017, Infineon Technologies AG
  10:/opt/XMClib/XMC_Peripheral_Library_v2.1.16/XMCLib/src/xmc4_scu.c ****  * All rights reserved.                        
  11:/opt/XMClib/XMC_Peripheral_Library_v2.1.16/XMCLib/src/xmc4_scu.c ****  *                                             
  12:/opt/XMClib/XMC_Peripheral_Library_v2.1.16/XMCLib/src/xmc4_scu.c ****  * Redistribution and use in source and binary forms, with or without modification,are permitted pr
  13:/opt/XMClib/XMC_Peripheral_Library_v2.1.16/XMCLib/src/xmc4_scu.c ****  * following conditions are met:   
  14:/opt/XMClib/XMC_Peripheral_Library_v2.1.16/XMCLib/src/xmc4_scu.c ****  *                                                                              
  15:/opt/XMClib/XMC_Peripheral_Library_v2.1.16/XMCLib/src/xmc4_scu.c ****  * Redistributions of source code must retain the above copyright notice, this list of conditions a
  16:/opt/XMClib/XMC_Peripheral_Library_v2.1.16/XMCLib/src/xmc4_scu.c ****  * disclaimer.                        
  17:/opt/XMClib/XMC_Peripheral_Library_v2.1.16/XMCLib/src/xmc4_scu.c ****  * 
  18:/opt/XMClib/XMC_Peripheral_Library_v2.1.16/XMCLib/src/xmc4_scu.c ****  * Redistributions in binary form must reproduce the above copyright notice, this list of condition
  19:/opt/XMClib/XMC_Peripheral_Library_v2.1.16/XMCLib/src/xmc4_scu.c ****  * disclaimer in the documentation and/or other materials provided with the distribution.          
  20:/opt/XMClib/XMC_Peripheral_Library_v2.1.16/XMCLib/src/xmc4_scu.c ****  * 
  21:/opt/XMClib/XMC_Peripheral_Library_v2.1.16/XMCLib/src/xmc4_scu.c ****  * Neither the name of the copyright holders nor the names of its contributors may be used to endor
  22:/opt/XMClib/XMC_Peripheral_Library_v2.1.16/XMCLib/src/xmc4_scu.c ****  * products derived from this software without specific prior written permission.                  
  23:/opt/XMClib/XMC_Peripheral_Library_v2.1.16/XMCLib/src/xmc4_scu.c ****  *                                                                              
  24:/opt/XMClib/XMC_Peripheral_Library_v2.1.16/XMCLib/src/xmc4_scu.c ****  * THIS SOFTWARE IS PROVIDED BY THE COPYRIGHT HOLDERS AND CONTRIBUTORS "AS IS" AND ANY EXPRESS OR I
  25:/opt/XMClib/XMC_Peripheral_Library_v2.1.16/XMCLib/src/xmc4_scu.c ****  * INCLUDING, BUT NOT LIMITED TO, THE IMPLIED WARRANTIES OF MERCHANTABILITY AND FITNESS FOR A PARTI
  26:/opt/XMClib/XMC_Peripheral_Library_v2.1.16/XMCLib/src/xmc4_scu.c ****  * DISCLAIMED. IN NO EVENT SHALL THE COPYRIGHT HOLDER OR CONTRIBUTORS BE LIABLE  FOR ANY DIRECT, IN
  27:/opt/XMClib/XMC_Peripheral_Library_v2.1.16/XMCLib/src/xmc4_scu.c ****  * SPECIAL, EXEMPLARY, OR CONSEQUENTIAL DAMAGES (INCLUDING, BUT NOT LIMITED TO, PROCUREMENT OF SUBS
  28:/opt/XMClib/XMC_Peripheral_Library_v2.1.16/XMCLib/src/xmc4_scu.c ****  * SERVICES; LOSS OF USE, DATA, OR PROFITS; OR BUSINESS INTERRUPTION) HOWEVER CAUSED AND ON ANY THE
  29:/opt/XMClib/XMC_Peripheral_Library_v2.1.16/XMCLib/src/xmc4_scu.c ****  * WHETHER IN CONTRACT, STRICT LIABILITY,OR TORT (INCLUDING NEGLIGENCE OR OTHERWISE) ARISING IN ANY
  30:/opt/XMClib/XMC_Peripheral_Library_v2.1.16/XMCLib/src/xmc4_scu.c ****  * OF THIS SOFTWARE, EVEN IF ADVISED OF THE POSSIBILITY OF SUCH DAMAGE.                            
  31:/opt/XMClib/XMC_Peripheral_Library_v2.1.16/XMCLib/src/xmc4_scu.c ****  *                                                                              
  32:/opt/XMClib/XMC_Peripheral_Library_v2.1.16/XMCLib/src/xmc4_scu.c ****  * To improve the quality of the software, users are encouraged to share modifications, enhancement
  33:/opt/XMClib/XMC_Peripheral_Library_v2.1.16/XMCLib/src/xmc4_scu.c ****  * Infineon Technologies AG dave@infineon.com).                                                    
  34:/opt/XMClib/XMC_Peripheral_Library_v2.1.16/XMCLib/src/xmc4_scu.c ****  **************************************************************************************************
  35:/opt/XMClib/XMC_Peripheral_Library_v2.1.16/XMCLib/src/xmc4_scu.c ****  *
  36:/opt/XMClib/XMC_Peripheral_Library_v2.1.16/XMCLib/src/xmc4_scu.c ****  * Change History
  37:/opt/XMClib/XMC_Peripheral_Library_v2.1.16/XMCLib/src/xmc4_scu.c ****  * --------------
  38:/opt/XMClib/XMC_Peripheral_Library_v2.1.16/XMCLib/src/xmc4_scu.c ****  *
  39:/opt/XMClib/XMC_Peripheral_Library_v2.1.16/XMCLib/src/xmc4_scu.c ****  * 2015-02-20:
  40:/opt/XMClib/XMC_Peripheral_Library_v2.1.16/XMCLib/src/xmc4_scu.c ****  *     - Initial <br>
  41:/opt/XMClib/XMC_Peripheral_Library_v2.1.16/XMCLib/src/xmc4_scu.c ****  *      
  42:/opt/XMClib/XMC_Peripheral_Library_v2.1.16/XMCLib/src/xmc4_scu.c ****  * 2015-05-20:
  43:/opt/XMClib/XMC_Peripheral_Library_v2.1.16/XMCLib/src/xmc4_scu.c ****  *     - XMC_ASSERT() hanging issues have fixed.  <br>
  44:/opt/XMClib/XMC_Peripheral_Library_v2.1.16/XMCLib/src/xmc4_scu.c ****  *     - Line indentation aligned with 120 characters. <br>
  45:/opt/XMClib/XMC_Peripheral_Library_v2.1.16/XMCLib/src/xmc4_scu.c ****  *     
  46:/opt/XMClib/XMC_Peripheral_Library_v2.1.16/XMCLib/src/xmc4_scu.c ****  * 2015-06-20:
  47:/opt/XMClib/XMC_Peripheral_Library_v2.1.16/XMCLib/src/xmc4_scu.c ****  *     - XMC_SCU_INTERRUPT_EnableEvent,XMC_SCU_INTERRUPT_DisableEvent,
  48:/opt/XMClib/XMC_Peripheral_Library_v2.1.16/XMCLib/src/xmc4_scu.c ****  *     - XMC_SCU_INTERRUPT_TriggerEvent,XMC_SCU_INTERUPT_GetEventStatus,
  49:/opt/XMClib/XMC_Peripheral_Library_v2.1.16/XMCLib/src/xmc4_scu.c ****  *     - XMC_SCU_INTERRUPT_ClearEventStatus are added
  50:/opt/XMClib/XMC_Peripheral_Library_v2.1.16/XMCLib/src/xmc4_scu.c ****  *     - Added Weak implementation for OSCHP_GetFrequency()
  51:/opt/XMClib/XMC_Peripheral_Library_v2.1.16/XMCLib/src/xmc4_scu.c ****  *
  52:/opt/XMClib/XMC_Peripheral_Library_v2.1.16/XMCLib/src/xmc4_scu.c ****  * 2015-11-30:
  53:/opt/XMClib/XMC_Peripheral_Library_v2.1.16/XMCLib/src/xmc4_scu.c ****  *     - Documentation improved <br>
  54:/opt/XMClib/XMC_Peripheral_Library_v2.1.16/XMCLib/src/xmc4_scu.c ****  *     - Following API functionalities are improved
  55:/opt/XMClib/XMC_Peripheral_Library_v2.1.16/XMCLib/src/xmc4_scu.c ****  *       XMC_SCU_CLOCK_GatePeripheralClock, XMC_SCU_CLOCK_UngatePeripheralClock, XMC_SCU_CLOCK_IsPe
  56:/opt/XMClib/XMC_Peripheral_Library_v2.1.16/XMCLib/src/xmc4_scu.c ****  *       XMC_SCU_RESET_AssertPeripheralReset, XMC_SCU_RESET_DeassertPeripheralReset, XMC_SCU_RESET_
  57:/opt/XMClib/XMC_Peripheral_Library_v2.1.16/XMCLib/src/xmc4_scu.c ****  *
  58:/opt/XMClib/XMC_Peripheral_Library_v2.1.16/XMCLib/src/xmc4_scu.c ****  * 2015-12-08:
  59:/opt/XMClib/XMC_Peripheral_Library_v2.1.16/XMCLib/src/xmc4_scu.c ****  *     - XMC_SCU_GetTemperature renamed to XMC_SCU_GetTemperatureMeasurement
  60:/opt/XMClib/XMC_Peripheral_Library_v2.1.16/XMCLib/src/xmc4_scu.c ****  *
  61:/opt/XMClib/XMC_Peripheral_Library_v2.1.16/XMCLib/src/xmc4_scu.c ****  * 2016-03-09:
  62:/opt/XMClib/XMC_Peripheral_Library_v2.1.16/XMCLib/src/xmc4_scu.c ****  *     - Optimize write only registers
  63:/opt/XMClib/XMC_Peripheral_Library_v2.1.16/XMCLib/src/xmc4_scu.c ****  *     - Added XMC_SCU_HIB_SetPinMode
  64:/opt/XMClib/XMC_Peripheral_Library_v2.1.16/XMCLib/src/xmc4_scu.c ****  *     - Added XMC_SCU_HIB_GetHibernateControlStatus,
  65:/opt/XMClib/XMC_Peripheral_Library_v2.1.16/XMCLib/src/xmc4_scu.c ****  *             XMC_SCU_HIB_GetEventStatus, XMC_SCU_HIB_ClearEventStatus, XMC_SCU_HIB_TriggerEvent, 
  66:/opt/XMClib/XMC_Peripheral_Library_v2.1.16/XMCLib/src/xmc4_scu.c ****  *             XMC_SCU_HIB_EnableEvent, XMC_SCU_HIB_DisableEvent
  67:/opt/XMClib/XMC_Peripheral_Library_v2.1.16/XMCLib/src/xmc4_scu.c ****  *     - Added XMC_SCU_HIB_SetWakeupTriggerInput, XMC_SCU_HIB_SetPinMode, XMC_SCU_HIB_SetOutputPinL
  68:/opt/XMClib/XMC_Peripheral_Library_v2.1.16/XMCLib/src/xmc4_scu.c ****  *             XMC_SCU_HIB_SetInput0, XMC_SCU_HIB_EnterHibernateState
  69:/opt/XMClib/XMC_Peripheral_Library_v2.1.16/XMCLib/src/xmc4_scu.c ****  *
  70:/opt/XMClib/XMC_Peripheral_Library_v2.1.16/XMCLib/src/xmc4_scu.c ****  * 2016-04-06:
  71:/opt/XMClib/XMC_Peripheral_Library_v2.1.16/XMCLib/src/xmc4_scu.c ****  *     - Fixed XMC_SCU_ReadFromRetentionMemory functionality
  72:/opt/XMClib/XMC_Peripheral_Library_v2.1.16/XMCLib/src/xmc4_scu.c ****  *
  73:/opt/XMClib/XMC_Peripheral_Library_v2.1.16/XMCLib/src/xmc4_scu.c ****  * 2016-05-19:
  74:/opt/XMClib/XMC_Peripheral_Library_v2.1.16/XMCLib/src/xmc4_scu.c ****  *     - Changed XMC_SCU_CLOCK_StartSystemPll to avoid using floating point calculation which might
  75:/opt/XMClib/XMC_Peripheral_Library_v2.1.16/XMCLib/src/xmc4_scu.c ****  *     - Added XMC_SCU_CLOCK_IsLowPowerOscillatorStable() and XMC_SCU_CLOCK_IsHighPerformanceOscill
  76:/opt/XMClib/XMC_Peripheral_Library_v2.1.16/XMCLib/src/xmc4_scu.c ****  *     - Added XMC_SCU_CLOCK_EnableLowPowerOscillatorGeneralPurposeInput(), 
  77:/opt/XMClib/XMC_Peripheral_Library_v2.1.16/XMCLib/src/xmc4_scu.c ****  *             XMC_SCU_CLOCK_DisableLowPowerOscillatorGeneralPurposeInput(),
  78:/opt/XMClib/XMC_Peripheral_Library_v2.1.16/XMCLib/src/xmc4_scu.c ****  *             XMC_SCU_CLOCK_GetLowPowerOscillatorGeneralPurposeInputStatus()
  79:/opt/XMClib/XMC_Peripheral_Library_v2.1.16/XMCLib/src/xmc4_scu.c ****  *     - Added XMC_SCU_CLOCK_EnableHighPerformanceOscillatorGeneralPurposeInput(), 
  80:/opt/XMClib/XMC_Peripheral_Library_v2.1.16/XMCLib/src/xmc4_scu.c ****  *             XMC_SCU_CLOCK_DisableHighPerformanceOscillatorGeneralPurposeInput(),
  81:/opt/XMClib/XMC_Peripheral_Library_v2.1.16/XMCLib/src/xmc4_scu.c ****  *             XMC_SCU_CLOCK_GetHighPerformanceOscillatorGeneralPurposeInputStatus()
  82:/opt/XMClib/XMC_Peripheral_Library_v2.1.16/XMCLib/src/xmc4_scu.c ****  *
  83:/opt/XMClib/XMC_Peripheral_Library_v2.1.16/XMCLib/src/xmc4_scu.c ****  * 2016-06-15:
  84:/opt/XMClib/XMC_Peripheral_Library_v2.1.16/XMCLib/src/xmc4_scu.c ****  *     - Added XMC_SCU_HIB_EnterHibernateStateEx() which allows to select between external or inter
  85:/opt/XMClib/XMC_Peripheral_Library_v2.1.16/XMCLib/src/xmc4_scu.c ****  *     - Extended wakeup hibernate events using LPAC wakeup on events. Only available in XMC44, XMC
  86:/opt/XMClib/XMC_Peripheral_Library_v2.1.16/XMCLib/src/xmc4_scu.c ****  *     - Added LPAC APIs. Only available in XMC44, XMC42 and XMC41 series.
  87:/opt/XMClib/XMC_Peripheral_Library_v2.1.16/XMCLib/src/xmc4_scu.c ****  *
  88:/opt/XMClib/XMC_Peripheral_Library_v2.1.16/XMCLib/src/xmc4_scu.c ****  * @endcond 
  89:/opt/XMClib/XMC_Peripheral_Library_v2.1.16/XMCLib/src/xmc4_scu.c ****  *
  90:/opt/XMClib/XMC_Peripheral_Library_v2.1.16/XMCLib/src/xmc4_scu.c ****  */
  91:/opt/XMClib/XMC_Peripheral_Library_v2.1.16/XMCLib/src/xmc4_scu.c **** 
  92:/opt/XMClib/XMC_Peripheral_Library_v2.1.16/XMCLib/src/xmc4_scu.c **** /**
  93:/opt/XMClib/XMC_Peripheral_Library_v2.1.16/XMCLib/src/xmc4_scu.c ****  *
  94:/opt/XMClib/XMC_Peripheral_Library_v2.1.16/XMCLib/src/xmc4_scu.c ****  * @brief SCU low level driver API prototype definition for XMC4 family of microcontrollers. 
  95:/opt/XMClib/XMC_Peripheral_Library_v2.1.16/XMCLib/src/xmc4_scu.c ****  *
  96:/opt/XMClib/XMC_Peripheral_Library_v2.1.16/XMCLib/src/xmc4_scu.c ****  * <b>Detailed description of file:</b> <br>
  97:/opt/XMClib/XMC_Peripheral_Library_v2.1.16/XMCLib/src/xmc4_scu.c ****  * APIs provided in this file cover the following functional blocks of SCU: <br>
  98:/opt/XMClib/XMC_Peripheral_Library_v2.1.16/XMCLib/src/xmc4_scu.c ****  * -- GCU (APIs prefixed with XMC_SCU_GEN_) <br>
  99:/opt/XMClib/XMC_Peripheral_Library_v2.1.16/XMCLib/src/xmc4_scu.c ****  * ------ Temperature Monitoring, Bootmode selection, CCU Start, Comparator configuration etc  <br>
 100:/opt/XMClib/XMC_Peripheral_Library_v2.1.16/XMCLib/src/xmc4_scu.c ****  * -- CCU (APIs prefixed with XMC_SCU_CLOCK_) <br>
 101:/opt/XMClib/XMC_Peripheral_Library_v2.1.16/XMCLib/src/xmc4_scu.c ****  * ------ Clock sources init, Clock tree init, Clock gating, Sleep Management etc <br>
 102:/opt/XMClib/XMC_Peripheral_Library_v2.1.16/XMCLib/src/xmc4_scu.c ****  * -- RCU (APIs prefixed with XMC_SCU_RESET_) <br>
 103:/opt/XMClib/XMC_Peripheral_Library_v2.1.16/XMCLib/src/xmc4_scu.c ****  * ------ Reset Init, Cause, Manual Reset Assert/Deassert <br>
 104:/opt/XMClib/XMC_Peripheral_Library_v2.1.16/XMCLib/src/xmc4_scu.c ****  * -- INTERRUPT (APIs prefixed with XMC_SCU_INTERRUPT_) <br>
 105:/opt/XMClib/XMC_Peripheral_Library_v2.1.16/XMCLib/src/xmc4_scu.c ****  * ------ Init, Manual Assert/Deassert, Acknowledge etc <br>
 106:/opt/XMClib/XMC_Peripheral_Library_v2.1.16/XMCLib/src/xmc4_scu.c ****  * -- PARITY (APIs prefixed with XMC_SCU_PARITY_) <br>
 107:/opt/XMClib/XMC_Peripheral_Library_v2.1.16/XMCLib/src/xmc4_scu.c ****  * ------ Init, Acknowledge etc <br>
 108:/opt/XMClib/XMC_Peripheral_Library_v2.1.16/XMCLib/src/xmc4_scu.c ****  * -- HIBERNATION (APIs prefixed with XMC_SCU_HIB_) <br>
 109:/opt/XMClib/XMC_Peripheral_Library_v2.1.16/XMCLib/src/xmc4_scu.c ****  * ------ Hibernation entry/exit config, entry/wakeup sequences, LPAC configuration etc <br>
 110:/opt/XMClib/XMC_Peripheral_Library_v2.1.16/XMCLib/src/xmc4_scu.c ****  * -- TRAP (APIs prefixed with XMC_SCU_TRAP_) <br>
 111:/opt/XMClib/XMC_Peripheral_Library_v2.1.16/XMCLib/src/xmc4_scu.c ****  * ------ Init, Enable/Disable, Acknowledge etc <br>
 112:/opt/XMClib/XMC_Peripheral_Library_v2.1.16/XMCLib/src/xmc4_scu.c ****  *
 113:/opt/XMClib/XMC_Peripheral_Library_v2.1.16/XMCLib/src/xmc4_scu.c ****  */
 114:/opt/XMClib/XMC_Peripheral_Library_v2.1.16/XMCLib/src/xmc4_scu.c **** 
 115:/opt/XMClib/XMC_Peripheral_Library_v2.1.16/XMCLib/src/xmc4_scu.c **** /**************************************************************************************************
 116:/opt/XMClib/XMC_Peripheral_Library_v2.1.16/XMCLib/src/xmc4_scu.c ****  * HEADER FILES
 117:/opt/XMClib/XMC_Peripheral_Library_v2.1.16/XMCLib/src/xmc4_scu.c ****  **************************************************************************************************
 118:/opt/XMClib/XMC_Peripheral_Library_v2.1.16/XMCLib/src/xmc4_scu.c **** #include <xmc_scu.h>
 119:/opt/XMClib/XMC_Peripheral_Library_v2.1.16/XMCLib/src/xmc4_scu.c **** 
 120:/opt/XMClib/XMC_Peripheral_Library_v2.1.16/XMCLib/src/xmc4_scu.c **** #if UC_FAMILY == XMC4
 121:/opt/XMClib/XMC_Peripheral_Library_v2.1.16/XMCLib/src/xmc4_scu.c **** 
 122:/opt/XMClib/XMC_Peripheral_Library_v2.1.16/XMCLib/src/xmc4_scu.c **** /**************************************************************************************************
 123:/opt/XMClib/XMC_Peripheral_Library_v2.1.16/XMCLib/src/xmc4_scu.c ****  * MACROS
 124:/opt/XMClib/XMC_Peripheral_Library_v2.1.16/XMCLib/src/xmc4_scu.c ****  **************************************************************************************************
 125:/opt/XMClib/XMC_Peripheral_Library_v2.1.16/XMCLib/src/xmc4_scu.c **** #define FOSCREF   (2500000UL)    /**< Oscillator reference frequency (fOSCREF) monitored by Oscilla
 126:/opt/XMClib/XMC_Peripheral_Library_v2.1.16/XMCLib/src/xmc4_scu.c **** #define FREQ_1MHZ (1000000UL)    /**< Used during calculation. */
 127:/opt/XMClib/XMC_Peripheral_Library_v2.1.16/XMCLib/src/xmc4_scu.c **** 
 128:/opt/XMClib/XMC_Peripheral_Library_v2.1.16/XMCLib/src/xmc4_scu.c **** #ifndef OFI_FREQUENCY
 129:/opt/XMClib/XMC_Peripheral_Library_v2.1.16/XMCLib/src/xmc4_scu.c **** #define OFI_FREQUENCY (24000000UL)    /**< Fast internal backup clock source. */
 130:/opt/XMClib/XMC_Peripheral_Library_v2.1.16/XMCLib/src/xmc4_scu.c **** #endif
 131:/opt/XMClib/XMC_Peripheral_Library_v2.1.16/XMCLib/src/xmc4_scu.c **** 
 132:/opt/XMClib/XMC_Peripheral_Library_v2.1.16/XMCLib/src/xmc4_scu.c **** #ifndef OSI_FREQUENCY
 133:/opt/XMClib/XMC_Peripheral_Library_v2.1.16/XMCLib/src/xmc4_scu.c **** #define OSI_FREQUENCY (32768UL)    /**< Internal slow clock source. */
 134:/opt/XMClib/XMC_Peripheral_Library_v2.1.16/XMCLib/src/xmc4_scu.c **** #endif
 135:/opt/XMClib/XMC_Peripheral_Library_v2.1.16/XMCLib/src/xmc4_scu.c **** 
 136:/opt/XMClib/XMC_Peripheral_Library_v2.1.16/XMCLib/src/xmc4_scu.c **** #ifndef OSCHP_FREQUENCY
 137:/opt/XMClib/XMC_Peripheral_Library_v2.1.16/XMCLib/src/xmc4_scu.c **** #define OSCHP_FREQUENCY (12000000U)    /**< External crystal High Precision Oscillator. */
 138:/opt/XMClib/XMC_Peripheral_Library_v2.1.16/XMCLib/src/xmc4_scu.c **** #endif
 139:/opt/XMClib/XMC_Peripheral_Library_v2.1.16/XMCLib/src/xmc4_scu.c **** 
 140:/opt/XMClib/XMC_Peripheral_Library_v2.1.16/XMCLib/src/xmc4_scu.c **** #define XMC_SCU_PLL_PLLSTAT_OSC_USABLE  (SCU_PLL_PLLSTAT_PLLHV_Msk | \
 141:/opt/XMClib/XMC_Peripheral_Library_v2.1.16/XMCLib/src/xmc4_scu.c ****                                          SCU_PLL_PLLSTAT_PLLLV_Msk | \
 142:/opt/XMClib/XMC_Peripheral_Library_v2.1.16/XMCLib/src/xmc4_scu.c ****                                          SCU_PLL_PLLSTAT_PLLSP_Msk)  /**< Used to verify the OSC fr
 143:/opt/XMClib/XMC_Peripheral_Library_v2.1.16/XMCLib/src/xmc4_scu.c ****                                                                           usable or not.*/
 144:/opt/XMClib/XMC_Peripheral_Library_v2.1.16/XMCLib/src/xmc4_scu.c **** 
 145:/opt/XMClib/XMC_Peripheral_Library_v2.1.16/XMCLib/src/xmc4_scu.c **** #define XMC_SCU_ORC_ADC_START_GROUP    (0UL)    /**< The ADC group whose channel input is compared 
 146:/opt/XMClib/XMC_Peripheral_Library_v2.1.16/XMCLib/src/xmc4_scu.c ****                                                      Comparator (ORC) to serves the purpose of over
 147:/opt/XMClib/XMC_Peripheral_Library_v2.1.16/XMCLib/src/xmc4_scu.c ****                                                      for analog input pins of the chip and ORC star
 148:/opt/XMClib/XMC_Peripheral_Library_v2.1.16/XMCLib/src/xmc4_scu.c ****                                                      this group number. */
 149:/opt/XMClib/XMC_Peripheral_Library_v2.1.16/XMCLib/src/xmc4_scu.c **** #define XMC_SCU_ORC_ADC_END_GROUP      (1UL)    /**< The ADC group whose channel input is compared 
 150:/opt/XMClib/XMC_Peripheral_Library_v2.1.16/XMCLib/src/xmc4_scu.c ****                                                      Comparator (ORC) to serves the purpose of over
 151:/opt/XMClib/XMC_Peripheral_Library_v2.1.16/XMCLib/src/xmc4_scu.c ****                                                      for analog input pins of the chip and ORC end 
 152:/opt/XMClib/XMC_Peripheral_Library_v2.1.16/XMCLib/src/xmc4_scu.c ****                                                      this group number. */
 153:/opt/XMClib/XMC_Peripheral_Library_v2.1.16/XMCLib/src/xmc4_scu.c **** #define XMC_SCU_ORC_START_ADC_CHANNEL  (6UL)    /**< The ADC channel whose channel input is compare
 154:/opt/XMClib/XMC_Peripheral_Library_v2.1.16/XMCLib/src/xmc4_scu.c ****                                                      Comparator (ORC) to serves the purpose of over
 155:/opt/XMClib/XMC_Peripheral_Library_v2.1.16/XMCLib/src/xmc4_scu.c ****                                                      for analog input pins of the chip and ORC star
 156:/opt/XMClib/XMC_Peripheral_Library_v2.1.16/XMCLib/src/xmc4_scu.c ****                                                      this channel number. */
 157:/opt/XMClib/XMC_Peripheral_Library_v2.1.16/XMCLib/src/xmc4_scu.c **** #define XMC_SCU_ORC_END_ADC_CHANNEL    (7UL)    /**< The ADC channel whose channel input is compare
 158:/opt/XMClib/XMC_Peripheral_Library_v2.1.16/XMCLib/src/xmc4_scu.c ****                                                      Comparator (ORC) to serves the purpose of over
 159:/opt/XMClib/XMC_Peripheral_Library_v2.1.16/XMCLib/src/xmc4_scu.c ****                                                      for analog input pins of the chip and ORC ends
 160:/opt/XMClib/XMC_Peripheral_Library_v2.1.16/XMCLib/src/xmc4_scu.c ****                                                      this channel number. */
 161:/opt/XMClib/XMC_Peripheral_Library_v2.1.16/XMCLib/src/xmc4_scu.c **** 
 162:/opt/XMClib/XMC_Peripheral_Library_v2.1.16/XMCLib/src/xmc4_scu.c **** #define XMC_SCU_CHECK_GRPNUM(GROUP_NUM)   (((GROUP_NUM) == XMC_SCU_ORC_ADC_START_GROUP) || \
 163:/opt/XMClib/XMC_Peripheral_Library_v2.1.16/XMCLib/src/xmc4_scu.c ****                                         ((GROUP_NUM) == XMC_SCU_ORC_ADC_END_GROUP) ) /**< Used to v
 164:/opt/XMClib/XMC_Peripheral_Library_v2.1.16/XMCLib/src/xmc4_scu.c ****                                                                                       provided ADC 
 165:/opt/XMClib/XMC_Peripheral_Library_v2.1.16/XMCLib/src/xmc4_scu.c ****                                                                                       within specif
 166:/opt/XMClib/XMC_Peripheral_Library_v2.1.16/XMCLib/src/xmc4_scu.c ****                                                                                       end group num
 167:/opt/XMClib/XMC_Peripheral_Library_v2.1.16/XMCLib/src/xmc4_scu.c ****                                         
 168:/opt/XMClib/XMC_Peripheral_Library_v2.1.16/XMCLib/src/xmc4_scu.c **** #define XMC_SCU_CHECK_CHNUM(CH_NUM)       (((CH_NUM) == XMC_SCU_ORC_START_ADC_CHANNEL) || \
 169:/opt/XMClib/XMC_Peripheral_Library_v2.1.16/XMCLib/src/xmc4_scu.c ****                                         ((CH_NUM) == XMC_SCU_ORC_END_ADC_CHANNEL) )  /**< Used to v
 170:/opt/XMClib/XMC_Peripheral_Library_v2.1.16/XMCLib/src/xmc4_scu.c ****                                                                                       provided ADC 
 171:/opt/XMClib/XMC_Peripheral_Library_v2.1.16/XMCLib/src/xmc4_scu.c ****                                                                                       within specif
 172:/opt/XMClib/XMC_Peripheral_Library_v2.1.16/XMCLib/src/xmc4_scu.c ****                                                                                       end channel n
 173:/opt/XMClib/XMC_Peripheral_Library_v2.1.16/XMCLib/src/xmc4_scu.c **** 
 174:/opt/XMClib/XMC_Peripheral_Library_v2.1.16/XMCLib/src/xmc4_scu.c **** #define XMC_SCU_INTERRUPT_EVENT_MAX            (32U)      /**< Maximum supported SCU events. */
 175:/opt/XMClib/XMC_Peripheral_Library_v2.1.16/XMCLib/src/xmc4_scu.c **** 
 176:/opt/XMClib/XMC_Peripheral_Library_v2.1.16/XMCLib/src/xmc4_scu.c **** #define SCU_HIBERNATE_HDCR_HIBIOSEL_Size (4U)
 177:/opt/XMClib/XMC_Peripheral_Library_v2.1.16/XMCLib/src/xmc4_scu.c **** 
 178:/opt/XMClib/XMC_Peripheral_Library_v2.1.16/XMCLib/src/xmc4_scu.c **** #define SCU_HIBERNATE_OSCULCTRL_MODE_OSC_POWER_DOWN (0x2U)
 179:/opt/XMClib/XMC_Peripheral_Library_v2.1.16/XMCLib/src/xmc4_scu.c **** 
 180:/opt/XMClib/XMC_Peripheral_Library_v2.1.16/XMCLib/src/xmc4_scu.c **** #define XMC_SCU_POWER_LSB13V (0.0058F)
 181:/opt/XMClib/XMC_Peripheral_Library_v2.1.16/XMCLib/src/xmc4_scu.c **** #define XMC_SCU_POWER_LSB33V (0.0225F)
 182:/opt/XMClib/XMC_Peripheral_Library_v2.1.16/XMCLib/src/xmc4_scu.c **** 
 183:/opt/XMClib/XMC_Peripheral_Library_v2.1.16/XMCLib/src/xmc4_scu.c **** /**************************************************************************************************
 184:/opt/XMClib/XMC_Peripheral_Library_v2.1.16/XMCLib/src/xmc4_scu.c ****  * LOCAL DATA
 185:/opt/XMClib/XMC_Peripheral_Library_v2.1.16/XMCLib/src/xmc4_scu.c ****  **************************************************************************************************
 186:/opt/XMClib/XMC_Peripheral_Library_v2.1.16/XMCLib/src/xmc4_scu.c **** XMC_SCU_INTERRUPT_EVENT_HANDLER_t event_handler_list[XMC_SCU_INTERRUPT_EVENT_MAX]; /**< For registe
 187:/opt/XMClib/XMC_Peripheral_Library_v2.1.16/XMCLib/src/xmc4_scu.c ****                                                                                         functions o
 188:/opt/XMClib/XMC_Peripheral_Library_v2.1.16/XMCLib/src/xmc4_scu.c ****                                                                                         occurrence.
 189:/opt/XMClib/XMC_Peripheral_Library_v2.1.16/XMCLib/src/xmc4_scu.c **** 
 190:/opt/XMClib/XMC_Peripheral_Library_v2.1.16/XMCLib/src/xmc4_scu.c **** /**************************************************************************************************
 191:/opt/XMClib/XMC_Peripheral_Library_v2.1.16/XMCLib/src/xmc4_scu.c ****  * LOCAL ROUTINES
 192:/opt/XMClib/XMC_Peripheral_Library_v2.1.16/XMCLib/src/xmc4_scu.c ****  **************************************************************************************************
 193:/opt/XMClib/XMC_Peripheral_Library_v2.1.16/XMCLib/src/xmc4_scu.c ****  #if defined(UC_ID)
 194:/opt/XMClib/XMC_Peripheral_Library_v2.1.16/XMCLib/src/xmc4_scu.c **** /* This is a non-weak function, which retrieves high precision external oscillator frequency. */
 195:/opt/XMClib/XMC_Peripheral_Library_v2.1.16/XMCLib/src/xmc4_scu.c **** __WEAK uint32_t OSCHP_GetFrequency(void)
 196:/opt/XMClib/XMC_Peripheral_Library_v2.1.16/XMCLib/src/xmc4_scu.c **** {
 197:/opt/XMClib/XMC_Peripheral_Library_v2.1.16/XMCLib/src/xmc4_scu.c ****   return (OSCHP_FREQUENCY);
 198:/opt/XMClib/XMC_Peripheral_Library_v2.1.16/XMCLib/src/xmc4_scu.c **** }
 199:/opt/XMClib/XMC_Peripheral_Library_v2.1.16/XMCLib/src/xmc4_scu.c **** #endif
 200:/opt/XMClib/XMC_Peripheral_Library_v2.1.16/XMCLib/src/xmc4_scu.c **** 
 201:/opt/XMClib/XMC_Peripheral_Library_v2.1.16/XMCLib/src/xmc4_scu.c **** /* This is a local function used to generate the delay until register get updated with new configur
 202:/opt/XMClib/XMC_Peripheral_Library_v2.1.16/XMCLib/src/xmc4_scu.c **** static void XMC_SCU_lDelay(uint32_t cycles);
 203:/opt/XMClib/XMC_Peripheral_Library_v2.1.16/XMCLib/src/xmc4_scu.c **** 
 204:/opt/XMClib/XMC_Peripheral_Library_v2.1.16/XMCLib/src/xmc4_scu.c **** /**************************************************************************************************
 205:/opt/XMClib/XMC_Peripheral_Library_v2.1.16/XMCLib/src/xmc4_scu.c ****  * API IMPLEMENTATION
 206:/opt/XMClib/XMC_Peripheral_Library_v2.1.16/XMCLib/src/xmc4_scu.c ****  **************************************************************************************************
 207:/opt/XMClib/XMC_Peripheral_Library_v2.1.16/XMCLib/src/xmc4_scu.c **** /* This is a local function used to generate the delay until register get updated with new configur
 208:/opt/XMClib/XMC_Peripheral_Library_v2.1.16/XMCLib/src/xmc4_scu.c **** void XMC_SCU_lDelay(uint32_t delay)
 209:/opt/XMClib/XMC_Peripheral_Library_v2.1.16/XMCLib/src/xmc4_scu.c **** {
 210:/opt/XMClib/XMC_Peripheral_Library_v2.1.16/XMCLib/src/xmc4_scu.c ****   uint32_t i;
 211:/opt/XMClib/XMC_Peripheral_Library_v2.1.16/XMCLib/src/xmc4_scu.c **** 
 212:/opt/XMClib/XMC_Peripheral_Library_v2.1.16/XMCLib/src/xmc4_scu.c ****   SystemCoreClockUpdate();
 213:/opt/XMClib/XMC_Peripheral_Library_v2.1.16/XMCLib/src/xmc4_scu.c ****   delay =  delay * (uint32_t)(SystemCoreClock / FREQ_1MHZ);
 214:/opt/XMClib/XMC_Peripheral_Library_v2.1.16/XMCLib/src/xmc4_scu.c **** 
 215:/opt/XMClib/XMC_Peripheral_Library_v2.1.16/XMCLib/src/xmc4_scu.c ****   for (i = 0U; i < delay; ++i)
 216:/opt/XMClib/XMC_Peripheral_Library_v2.1.16/XMCLib/src/xmc4_scu.c ****   {
 217:/opt/XMClib/XMC_Peripheral_Library_v2.1.16/XMCLib/src/xmc4_scu.c ****     __NOP();
 218:/opt/XMClib/XMC_Peripheral_Library_v2.1.16/XMCLib/src/xmc4_scu.c ****   }
 219:/opt/XMClib/XMC_Peripheral_Library_v2.1.16/XMCLib/src/xmc4_scu.c **** }
 220:/opt/XMClib/XMC_Peripheral_Library_v2.1.16/XMCLib/src/xmc4_scu.c **** 
 221:/opt/XMClib/XMC_Peripheral_Library_v2.1.16/XMCLib/src/xmc4_scu.c **** /* API to enable the SCU event */
 222:/opt/XMClib/XMC_Peripheral_Library_v2.1.16/XMCLib/src/xmc4_scu.c **** void XMC_SCU_INTERRUPT_EnableEvent(const XMC_SCU_INTERRUPT_EVENT_t event)
 223:/opt/XMClib/XMC_Peripheral_Library_v2.1.16/XMCLib/src/xmc4_scu.c **** {
  30              		.loc 1 223 1 view -0
  31              		.cfi_startproc
  32              		@ args = 0, pretend = 0, frame = 0
  33              		@ frame_needed = 0, uses_anonymous_args = 0
  34              		@ link register save eliminated.
 224:/opt/XMClib/XMC_Peripheral_Library_v2.1.16/XMCLib/src/xmc4_scu.c ****   SCU_INTERRUPT->SRMSK |= (uint32_t)event;
  35              		.loc 1 224 3 view .LVU1
  36              		.loc 1 224 24 is_stmt 0 view .LVU2
  37 0000 024A     		ldr	r2, .L3
  38 0002 D36F     		ldr	r3, [r2, #124]
  39 0004 1843     		orrs	r0, r0, r3
  40              	.LVL1:
  41              		.loc 1 224 24 view .LVU3
  42 0006 D067     		str	r0, [r2, #124]
 225:/opt/XMClib/XMC_Peripheral_Library_v2.1.16/XMCLib/src/xmc4_scu.c **** }
  43              		.loc 1 225 1 view .LVU4
  44 0008 7047     		bx	lr
  45              	.L4:
  46 000a 00BF     		.align	2
  47              	.L3:
  48 000c 00400050 		.word	1342193664
  49              		.cfi_endproc
  50              	.LFE163:
  52              		.section	.text.XMC_SCU_INTERRUPT_DisableEvent,"ax",%progbits
  53              		.align	1
  54              		.p2align 2,,3
  55              		.global	XMC_SCU_INTERRUPT_DisableEvent
  56              		.syntax unified
  57              		.thumb
  58              		.thumb_func
  59              		.fpu fpv4-sp-d16
  61              	XMC_SCU_INTERRUPT_DisableEvent:
  62              	.LVL2:
  63              	.LFB164:
 226:/opt/XMClib/XMC_Peripheral_Library_v2.1.16/XMCLib/src/xmc4_scu.c **** 
 227:/opt/XMClib/XMC_Peripheral_Library_v2.1.16/XMCLib/src/xmc4_scu.c **** /* API to disable the SCU event */
 228:/opt/XMClib/XMC_Peripheral_Library_v2.1.16/XMCLib/src/xmc4_scu.c **** void XMC_SCU_INTERRUPT_DisableEvent(const XMC_SCU_INTERRUPT_EVENT_t event)
 229:/opt/XMClib/XMC_Peripheral_Library_v2.1.16/XMCLib/src/xmc4_scu.c **** {
  64              		.loc 1 229 1 is_stmt 1 view -0
  65              		.cfi_startproc
  66              		@ args = 0, pretend = 0, frame = 0
  67              		@ frame_needed = 0, uses_anonymous_args = 0
  68              		@ link register save eliminated.
 230:/opt/XMClib/XMC_Peripheral_Library_v2.1.16/XMCLib/src/xmc4_scu.c ****   SCU_INTERRUPT->SRMSK &= (uint32_t)~event;
  69              		.loc 1 230 3 view .LVU6
  70              		.loc 1 230 24 is_stmt 0 view .LVU7
  71 0000 024A     		ldr	r2, .L6
  72 0002 D36F     		ldr	r3, [r2, #124]
  73 0004 23EA0000 		bic	r0, r3, r0
  74              	.LVL3:
  75              		.loc 1 230 24 view .LVU8
  76 0008 D067     		str	r0, [r2, #124]
 231:/opt/XMClib/XMC_Peripheral_Library_v2.1.16/XMCLib/src/xmc4_scu.c **** }
  77              		.loc 1 231 1 view .LVU9
  78 000a 7047     		bx	lr
  79              	.L7:
  80              		.align	2
  81              	.L6:
  82 000c 00400050 		.word	1342193664
  83              		.cfi_endproc
  84              	.LFE164:
  86              		.section	.text.XMC_SCU_INTERRUPT_TriggerEvent,"ax",%progbits
  87              		.align	1
  88              		.p2align 2,,3
  89              		.global	XMC_SCU_INTERRUPT_TriggerEvent
  90              		.syntax unified
  91              		.thumb
  92              		.thumb_func
  93              		.fpu fpv4-sp-d16
  95              	XMC_SCU_INTERRUPT_TriggerEvent:
  96              	.LVL4:
  97              	.LFB165:
 232:/opt/XMClib/XMC_Peripheral_Library_v2.1.16/XMCLib/src/xmc4_scu.c **** 
 233:/opt/XMClib/XMC_Peripheral_Library_v2.1.16/XMCLib/src/xmc4_scu.c **** /* API to trigger the SCU event */
 234:/opt/XMClib/XMC_Peripheral_Library_v2.1.16/XMCLib/src/xmc4_scu.c **** void XMC_SCU_INTERRUPT_TriggerEvent(const XMC_SCU_INTERRUPT_EVENT_t event)
 235:/opt/XMClib/XMC_Peripheral_Library_v2.1.16/XMCLib/src/xmc4_scu.c **** {
  98              		.loc 1 235 1 is_stmt 1 view -0
  99              		.cfi_startproc
 100              		@ args = 0, pretend = 0, frame = 0
 101              		@ frame_needed = 0, uses_anonymous_args = 0
 102              		@ link register save eliminated.
 236:/opt/XMClib/XMC_Peripheral_Library_v2.1.16/XMCLib/src/xmc4_scu.c ****   SCU_INTERRUPT->SRSET |= (uint32_t)event;
 103              		.loc 1 236 3 view .LVU11
 104              		.loc 1 236 24 is_stmt 0 view .LVU12
 105 0000 034A     		ldr	r2, .L9
 106 0002 D2F88430 		ldr	r3, [r2, #132]
 107 0006 1843     		orrs	r0, r0, r3
 108              	.LVL5:
 109              		.loc 1 236 24 view .LVU13
 110 0008 C2F88400 		str	r0, [r2, #132]
 237:/opt/XMClib/XMC_Peripheral_Library_v2.1.16/XMCLib/src/xmc4_scu.c **** }
 111              		.loc 1 237 1 view .LVU14
 112 000c 7047     		bx	lr
 113              	.L10:
 114 000e 00BF     		.align	2
 115              	.L9:
 116 0010 00400050 		.word	1342193664
 117              		.cfi_endproc
 118              	.LFE165:
 120              		.section	.text.XMC_SCU_INTERUPT_GetEventStatus,"ax",%progbits
 121              		.align	1
 122              		.p2align 2,,3
 123              		.global	XMC_SCU_INTERUPT_GetEventStatus
 124              		.syntax unified
 125              		.thumb
 126              		.thumb_func
 127              		.fpu fpv4-sp-d16
 129              	XMC_SCU_INTERUPT_GetEventStatus:
 130              	.LFB166:
 238:/opt/XMClib/XMC_Peripheral_Library_v2.1.16/XMCLib/src/xmc4_scu.c **** 
 239:/opt/XMClib/XMC_Peripheral_Library_v2.1.16/XMCLib/src/xmc4_scu.c **** /* API to retrieve the SCU event status */
 240:/opt/XMClib/XMC_Peripheral_Library_v2.1.16/XMCLib/src/xmc4_scu.c **** XMC_SCU_INTERRUPT_EVENT_t XMC_SCU_INTERUPT_GetEventStatus(void)
 241:/opt/XMClib/XMC_Peripheral_Library_v2.1.16/XMCLib/src/xmc4_scu.c **** {
 131              		.loc 1 241 1 is_stmt 1 view -0
 132              		.cfi_startproc
 133              		@ args = 0, pretend = 0, frame = 0
 134              		@ frame_needed = 0, uses_anonymous_args = 0
 135              		@ link register save eliminated.
 242:/opt/XMClib/XMC_Peripheral_Library_v2.1.16/XMCLib/src/xmc4_scu.c ****   return (SCU_INTERRUPT->SRRAW);
 136              		.loc 1 242 3 view .LVU16
 137              		.loc 1 242 24 is_stmt 0 view .LVU17
 138 0000 014B     		ldr	r3, .L12
 139 0002 986F     		ldr	r0, [r3, #120]
 243:/opt/XMClib/XMC_Peripheral_Library_v2.1.16/XMCLib/src/xmc4_scu.c **** }
 140              		.loc 1 243 1 view .LVU18
 141 0004 7047     		bx	lr
 142              	.L13:
 143 0006 00BF     		.align	2
 144              	.L12:
 145 0008 00400050 		.word	1342193664
 146              		.cfi_endproc
 147              	.LFE166:
 149              		.section	.text.XMC_SCU_INTERRUPT_ClearEventStatus,"ax",%progbits
 150              		.align	1
 151              		.p2align 2,,3
 152              		.global	XMC_SCU_INTERRUPT_ClearEventStatus
 153              		.syntax unified
 154              		.thumb
 155              		.thumb_func
 156              		.fpu fpv4-sp-d16
 158              	XMC_SCU_INTERRUPT_ClearEventStatus:
 159              	.LVL6:
 160              	.LFB167:
 244:/opt/XMClib/XMC_Peripheral_Library_v2.1.16/XMCLib/src/xmc4_scu.c **** 
 245:/opt/XMClib/XMC_Peripheral_Library_v2.1.16/XMCLib/src/xmc4_scu.c **** /* API to clear the SCU event status */
 246:/opt/XMClib/XMC_Peripheral_Library_v2.1.16/XMCLib/src/xmc4_scu.c **** void XMC_SCU_INTERRUPT_ClearEventStatus(const XMC_SCU_INTERRUPT_EVENT_t event)
 247:/opt/XMClib/XMC_Peripheral_Library_v2.1.16/XMCLib/src/xmc4_scu.c **** {
 161              		.loc 1 247 1 is_stmt 1 view -0
 162              		.cfi_startproc
 163              		@ args = 0, pretend = 0, frame = 0
 164              		@ frame_needed = 0, uses_anonymous_args = 0
 165              		@ link register save eliminated.
 248:/opt/XMClib/XMC_Peripheral_Library_v2.1.16/XMCLib/src/xmc4_scu.c ****   SCU_INTERRUPT->SRCLR = (uint32_t)event;
 166              		.loc 1 248 3 view .LVU20
 167              		.loc 1 248 24 is_stmt 0 view .LVU21
 168 0000 014B     		ldr	r3, .L15
 169 0002 C3F88000 		str	r0, [r3, #128]
 249:/opt/XMClib/XMC_Peripheral_Library_v2.1.16/XMCLib/src/xmc4_scu.c **** }
 170              		.loc 1 249 1 view .LVU22
 171 0006 7047     		bx	lr
 172              	.L16:
 173              		.align	2
 174              	.L15:
 175 0008 00400050 		.word	1342193664
 176              		.cfi_endproc
 177              	.LFE167:
 179              		.section	.text.XMC_SCU_GetBootMode,"ax",%progbits
 180              		.align	1
 181              		.p2align 2,,3
 182              		.global	XMC_SCU_GetBootMode
 183              		.syntax unified
 184              		.thumb
 185              		.thumb_func
 186              		.fpu fpv4-sp-d16
 188              	XMC_SCU_GetBootMode:
 189              	.LFB168:
 250:/opt/XMClib/XMC_Peripheral_Library_v2.1.16/XMCLib/src/xmc4_scu.c **** 
 251:/opt/XMClib/XMC_Peripheral_Library_v2.1.16/XMCLib/src/xmc4_scu.c **** 
 252:/opt/XMClib/XMC_Peripheral_Library_v2.1.16/XMCLib/src/xmc4_scu.c **** /* API to retrieve the currently deployed device bootmode */
 253:/opt/XMClib/XMC_Peripheral_Library_v2.1.16/XMCLib/src/xmc4_scu.c **** uint32_t XMC_SCU_GetBootMode(void)
 254:/opt/XMClib/XMC_Peripheral_Library_v2.1.16/XMCLib/src/xmc4_scu.c **** {
 190              		.loc 1 254 1 is_stmt 1 view -0
 191              		.cfi_startproc
 192              		@ args = 0, pretend = 0, frame = 0
 193              		@ frame_needed = 0, uses_anonymous_args = 0
 194              		@ link register save eliminated.
 255:/opt/XMClib/XMC_Peripheral_Library_v2.1.16/XMCLib/src/xmc4_scu.c ****   return (uint32_t)(SCU_GENERAL->STCON & SCU_GENERAL_STCON_SWCON_Msk);
 195              		.loc 1 255 3 view .LVU24
 196              		.loc 1 255 32 is_stmt 0 view .LVU25
 197 0000 024B     		ldr	r3, .L18
 198 0002 1869     		ldr	r0, [r3, #16]
 256:/opt/XMClib/XMC_Peripheral_Library_v2.1.16/XMCLib/src/xmc4_scu.c **** }
 199              		.loc 1 256 1 view .LVU26
 200 0004 00F47060 		and	r0, r0, #3840
 201 0008 7047     		bx	lr
 202              	.L19:
 203 000a 00BF     		.align	2
 204              	.L18:
 205 000c 00400050 		.word	1342193664
 206              		.cfi_endproc
 207              	.LFE168:
 209              		.section	.text.XMC_SCU_SetBootMode,"ax",%progbits
 210              		.align	1
 211              		.p2align 2,,3
 212              		.global	XMC_SCU_SetBootMode
 213              		.syntax unified
 214              		.thumb
 215              		.thumb_func
 216              		.fpu fpv4-sp-d16
 218              	XMC_SCU_SetBootMode:
 219              	.LVL7:
 220              	.LFB169:
 257:/opt/XMClib/XMC_Peripheral_Library_v2.1.16/XMCLib/src/xmc4_scu.c **** 
 258:/opt/XMClib/XMC_Peripheral_Library_v2.1.16/XMCLib/src/xmc4_scu.c **** /* API to program a new device bootmode */
 259:/opt/XMClib/XMC_Peripheral_Library_v2.1.16/XMCLib/src/xmc4_scu.c **** void XMC_SCU_SetBootMode(const XMC_SCU_BOOTMODE_t bootmode)
 260:/opt/XMClib/XMC_Peripheral_Library_v2.1.16/XMCLib/src/xmc4_scu.c **** {
 221              		.loc 1 260 1 is_stmt 1 view -0
 222              		.cfi_startproc
 223              		@ args = 0, pretend = 0, frame = 0
 224              		@ frame_needed = 0, uses_anonymous_args = 0
 225              		@ link register save eliminated.
 261:/opt/XMClib/XMC_Peripheral_Library_v2.1.16/XMCLib/src/xmc4_scu.c ****   SCU_GENERAL->STCON = (uint32_t)bootmode;
 226              		.loc 1 261 3 view .LVU28
 227              		.loc 1 261 22 is_stmt 0 view .LVU29
 228 0000 014B     		ldr	r3, .L21
 229 0002 1861     		str	r0, [r3, #16]
 262:/opt/XMClib/XMC_Peripheral_Library_v2.1.16/XMCLib/src/xmc4_scu.c **** }
 230              		.loc 1 262 1 view .LVU30
 231 0004 7047     		bx	lr
 232              	.L22:
 233 0006 00BF     		.align	2
 234              	.L21:
 235 0008 00400050 		.word	1342193664
 236              		.cfi_endproc
 237              	.LFE169:
 239              		.section	.text.XMC_SCU_ReadGPR,"ax",%progbits
 240              		.align	1
 241              		.p2align 2,,3
 242              		.global	XMC_SCU_ReadGPR
 243              		.syntax unified
 244              		.thumb
 245              		.thumb_func
 246              		.fpu fpv4-sp-d16
 248              	XMC_SCU_ReadGPR:
 249              	.LVL8:
 250              	.LFB170:
 263:/opt/XMClib/XMC_Peripheral_Library_v2.1.16/XMCLib/src/xmc4_scu.c **** 
 264:/opt/XMClib/XMC_Peripheral_Library_v2.1.16/XMCLib/src/xmc4_scu.c **** /* API to read from General purpose register */
 265:/opt/XMClib/XMC_Peripheral_Library_v2.1.16/XMCLib/src/xmc4_scu.c **** uint32_t XMC_SCU_ReadGPR(const uint32_t index)
 266:/opt/XMClib/XMC_Peripheral_Library_v2.1.16/XMCLib/src/xmc4_scu.c **** {
 251              		.loc 1 266 1 is_stmt 1 view -0
 252              		.cfi_startproc
 253              		@ args = 0, pretend = 0, frame = 0
 254              		@ frame_needed = 0, uses_anonymous_args = 0
 255              		@ link register save eliminated.
 267:/opt/XMClib/XMC_Peripheral_Library_v2.1.16/XMCLib/src/xmc4_scu.c ****   return (SCU_GENERAL->GPR[index]);
 256              		.loc 1 267 3 view .LVU32
 257              		.loc 1 267 27 is_stmt 0 view .LVU33
 258 0000 024B     		ldr	r3, .L24
 259 0002 8000     		lsls	r0, r0, #2
 260              	.LVL9:
 261              		.loc 1 267 27 view .LVU34
 262 0004 0344     		add	r3, r3, r0
 263 0006 5868     		ldr	r0, [r3, #4]
 268:/opt/XMClib/XMC_Peripheral_Library_v2.1.16/XMCLib/src/xmc4_scu.c **** }
 264              		.loc 1 268 1 view .LVU35
 265 0008 7047     		bx	lr
 266              	.L25:
 267 000a 00BF     		.align	2
 268              	.L24:
 269 000c 28400050 		.word	1342193704
 270              		.cfi_endproc
 271              	.LFE170:
 273              		.section	.text.XMC_SCU_WriteGPR,"ax",%progbits
 274              		.align	1
 275              		.p2align 2,,3
 276              		.global	XMC_SCU_WriteGPR
 277              		.syntax unified
 278              		.thumb
 279              		.thumb_func
 280              		.fpu fpv4-sp-d16
 282              	XMC_SCU_WriteGPR:
 283              	.LVL10:
 284              	.LFB171:
 269:/opt/XMClib/XMC_Peripheral_Library_v2.1.16/XMCLib/src/xmc4_scu.c **** 
 270:/opt/XMClib/XMC_Peripheral_Library_v2.1.16/XMCLib/src/xmc4_scu.c **** /* API to write to GPR */
 271:/opt/XMClib/XMC_Peripheral_Library_v2.1.16/XMCLib/src/xmc4_scu.c **** void XMC_SCU_WriteGPR(const uint32_t index, const uint32_t data)
 272:/opt/XMClib/XMC_Peripheral_Library_v2.1.16/XMCLib/src/xmc4_scu.c **** {
 285              		.loc 1 272 1 is_stmt 1 view -0
 286              		.cfi_startproc
 287              		@ args = 0, pretend = 0, frame = 0
 288              		@ frame_needed = 0, uses_anonymous_args = 0
 289              		@ link register save eliminated.
 273:/opt/XMClib/XMC_Peripheral_Library_v2.1.16/XMCLib/src/xmc4_scu.c ****   SCU_GENERAL->GPR[index] = data;
 290              		.loc 1 273 3 view .LVU37
 291              		.loc 1 273 27 is_stmt 0 view .LVU38
 292 0000 024B     		ldr	r3, .L27
 293 0002 8000     		lsls	r0, r0, #2
 294              	.LVL11:
 295              		.loc 1 273 27 view .LVU39
 296 0004 0344     		add	r3, r3, r0
 297 0006 5960     		str	r1, [r3, #4]
 274:/opt/XMClib/XMC_Peripheral_Library_v2.1.16/XMCLib/src/xmc4_scu.c **** }
 298              		.loc 1 274 1 view .LVU40
 299 0008 7047     		bx	lr
 300              	.L28:
 301 000a 00BF     		.align	2
 302              	.L27:
 303 000c 28400050 		.word	1342193704
 304              		.cfi_endproc
 305              	.LFE171:
 307              		.section	.text.XMC_SCU_EnableOutOfRangeComparator,"ax",%progbits
 308              		.align	1
 309              		.p2align 2,,3
 310              		.global	XMC_SCU_EnableOutOfRangeComparator
 311              		.syntax unified
 312              		.thumb
 313              		.thumb_func
 314              		.fpu fpv4-sp-d16
 316              	XMC_SCU_EnableOutOfRangeComparator:
 317              	.LVL12:
 318              	.LFB172:
 275:/opt/XMClib/XMC_Peripheral_Library_v2.1.16/XMCLib/src/xmc4_scu.c **** 
 276:/opt/XMClib/XMC_Peripheral_Library_v2.1.16/XMCLib/src/xmc4_scu.c **** /* API to enable Out of Range Comparator(ORC) for a desired group and a desired channel input */
 277:/opt/XMClib/XMC_Peripheral_Library_v2.1.16/XMCLib/src/xmc4_scu.c **** void XMC_SCU_EnableOutOfRangeComparator(const uint32_t group, const uint32_t channel)
 278:/opt/XMClib/XMC_Peripheral_Library_v2.1.16/XMCLib/src/xmc4_scu.c **** {
 319              		.loc 1 278 1 is_stmt 1 view -0
 320              		.cfi_startproc
 321              		@ args = 0, pretend = 0, frame = 0
 322              		@ frame_needed = 0, uses_anonymous_args = 0
 323              		@ link register save eliminated.
 279:/opt/XMClib/XMC_Peripheral_Library_v2.1.16/XMCLib/src/xmc4_scu.c ****   XMC_ASSERT("XMC_SCU_EnableOutOfangeComparator:Wrong Group Number",XMC_SCU_CHECK_GRPNUM(group));
 324              		.loc 1 279 3 view .LVU42
 325              		.loc 1 279 97 view .LVU43
 280:/opt/XMClib/XMC_Peripheral_Library_v2.1.16/XMCLib/src/xmc4_scu.c ****   XMC_ASSERT("XMC_SCU_EnableOutOfangeComparator:Wrong Channel Number",XMC_SCU_CHECK_CHNUM(channel))
 326              		.loc 1 280 3 view .LVU44
 327              		.loc 1 280 100 view .LVU45
 281:/opt/XMClib/XMC_Peripheral_Library_v2.1.16/XMCLib/src/xmc4_scu.c ****    
 282:/opt/XMClib/XMC_Peripheral_Library_v2.1.16/XMCLib/src/xmc4_scu.c ****   SCU_GENERAL->GORCEN[group] |= (uint32_t)(1UL << channel);
 328              		.loc 1 282 3 view .LVU46
 329 0000 8000     		lsls	r0, r0, #2
 330              	.LVL13:
 331              		.loc 1 282 3 is_stmt 0 view .LVU47
 332 0002 00F1A040 		add	r0, r0, #1342177280
 333 0006 00F58040 		add	r0, r0, #16384
 334              		.loc 1 282 33 view .LVU48
 335 000a 0123     		movs	r3, #1
 336              		.loc 1 282 30 view .LVU49
 337 000c D0F8A020 		ldr	r2, [r0, #160]
 338              		.loc 1 282 33 view .LVU50
 339 0010 03FA01F1 		lsl	r1, r3, r1
 340              	.LVL14:
 341              		.loc 1 282 30 view .LVU51
 342 0014 1143     		orrs	r1, r1, r2
 343 0016 C0F8A010 		str	r1, [r0, #160]
 283:/opt/XMClib/XMC_Peripheral_Library_v2.1.16/XMCLib/src/xmc4_scu.c **** }
 344              		.loc 1 283 1 view .LVU52
 345 001a 7047     		bx	lr
 346              		.cfi_endproc
 347              	.LFE172:
 349              		.section	.text.XMC_SCU_DisableOutOfRangeComparator,"ax",%progbits
 350              		.align	1
 351              		.p2align 2,,3
 352              		.global	XMC_SCU_DisableOutOfRangeComparator
 353              		.syntax unified
 354              		.thumb
 355              		.thumb_func
 356              		.fpu fpv4-sp-d16
 358              	XMC_SCU_DisableOutOfRangeComparator:
 359              	.LVL15:
 360              	.LFB173:
 284:/opt/XMClib/XMC_Peripheral_Library_v2.1.16/XMCLib/src/xmc4_scu.c **** 
 285:/opt/XMClib/XMC_Peripheral_Library_v2.1.16/XMCLib/src/xmc4_scu.c **** /* API to enable Out of Range Comparator(ORC) for a desired group and a desired channel input */
 286:/opt/XMClib/XMC_Peripheral_Library_v2.1.16/XMCLib/src/xmc4_scu.c **** void XMC_SCU_DisableOutOfRangeComparator(const uint32_t group, const uint32_t channel)
 287:/opt/XMClib/XMC_Peripheral_Library_v2.1.16/XMCLib/src/xmc4_scu.c **** {
 361              		.loc 1 287 1 is_stmt 1 view -0
 362              		.cfi_startproc
 363              		@ args = 0, pretend = 0, frame = 0
 364              		@ frame_needed = 0, uses_anonymous_args = 0
 365              		@ link register save eliminated.
 288:/opt/XMClib/XMC_Peripheral_Library_v2.1.16/XMCLib/src/xmc4_scu.c ****   XMC_ASSERT("XMC_SCU_DisableOutOfRangeComparator:Wrong Group Number",XMC_SCU_CHECK_GRPNUM(group));
 366              		.loc 1 288 3 view .LVU54
 367              		.loc 1 288 99 view .LVU55
 289:/opt/XMClib/XMC_Peripheral_Library_v2.1.16/XMCLib/src/xmc4_scu.c ****   XMC_ASSERT("XMC_SCU_DisableOutOfRangeComparator:Wrong Channel Number",XMC_SCU_CHECK_CHNUM(channel
 368              		.loc 1 289 3 view .LVU56
 369              		.loc 1 289 102 view .LVU57
 290:/opt/XMClib/XMC_Peripheral_Library_v2.1.16/XMCLib/src/xmc4_scu.c ****    
 291:/opt/XMClib/XMC_Peripheral_Library_v2.1.16/XMCLib/src/xmc4_scu.c ****   SCU_GENERAL->GORCEN[group] &= (uint32_t)~(1UL << channel);
 370              		.loc 1 291 3 view .LVU58
 371 0000 8000     		lsls	r0, r0, #2
 372              	.LVL16:
 373              		.loc 1 291 3 is_stmt 0 view .LVU59
 374 0002 00F1A040 		add	r0, r0, #1342177280
 375 0006 00F58040 		add	r0, r0, #16384
 376              		.loc 1 291 49 view .LVU60
 377 000a 0122     		movs	r2, #1
 378              		.loc 1 291 30 view .LVU61
 379 000c D0F8A030 		ldr	r3, [r0, #160]
 380              		.loc 1 291 49 view .LVU62
 381 0010 02FA01F1 		lsl	r1, r2, r1
 382              	.LVL17:
 383              		.loc 1 291 30 view .LVU63
 384 0014 23EA0103 		bic	r3, r3, r1
 385 0018 C0F8A030 		str	r3, [r0, #160]
 292:/opt/XMClib/XMC_Peripheral_Library_v2.1.16/XMCLib/src/xmc4_scu.c **** }
 386              		.loc 1 292 1 view .LVU64
 387 001c 7047     		bx	lr
 388              		.cfi_endproc
 389              	.LFE173:
 391 001e 00BF     		.section	.text.XMC_SCU_CalibrateTemperatureSensor,"ax",%progbits
 392              		.align	1
 393              		.p2align 2,,3
 394              		.global	XMC_SCU_CalibrateTemperatureSensor
 395              		.syntax unified
 396              		.thumb
 397              		.thumb_func
 398              		.fpu fpv4-sp-d16
 400              	XMC_SCU_CalibrateTemperatureSensor:
 401              	.LVL18:
 402              	.LFB174:
 293:/opt/XMClib/XMC_Peripheral_Library_v2.1.16/XMCLib/src/xmc4_scu.c **** 
 294:/opt/XMClib/XMC_Peripheral_Library_v2.1.16/XMCLib/src/xmc4_scu.c **** /* API to calibrate temperature sensor */
 295:/opt/XMClib/XMC_Peripheral_Library_v2.1.16/XMCLib/src/xmc4_scu.c **** void XMC_SCU_CalibrateTemperatureSensor(uint32_t offset, uint32_t gain)
 296:/opt/XMClib/XMC_Peripheral_Library_v2.1.16/XMCLib/src/xmc4_scu.c **** {
 403              		.loc 1 296 1 is_stmt 1 view -0
 404              		.cfi_startproc
 405              		@ args = 0, pretend = 0, frame = 0
 406              		@ frame_needed = 0, uses_anonymous_args = 0
 407              		@ link register save eliminated.
 297:/opt/XMClib/XMC_Peripheral_Library_v2.1.16/XMCLib/src/xmc4_scu.c ****   SCU_GENERAL->DTSCON = ((uint32_t)(offset << SCU_GENERAL_DTSCON_OFFSET_Pos) |
 408              		.loc 1 297 3 view .LVU66
 298:/opt/XMClib/XMC_Peripheral_Library_v2.1.16/XMCLib/src/xmc4_scu.c ****                         (uint32_t)(gain << SCU_GENERAL_DTSCON_GAIN_Pos) |
 409              		.loc 1 298 41 is_stmt 0 view .LVU67
 410 0000 C902     		lsls	r1, r1, #11
 411              	.LVL19:
 297:/opt/XMClib/XMC_Peripheral_Library_v2.1.16/XMCLib/src/xmc4_scu.c ****   SCU_GENERAL->DTSCON = ((uint32_t)(offset << SCU_GENERAL_DTSCON_OFFSET_Pos) |
 412              		.loc 1 297 23 view .LVU68
 413 0002 044B     		ldr	r3, .L32
 297:/opt/XMClib/XMC_Peripheral_Library_v2.1.16/XMCLib/src/xmc4_scu.c ****   SCU_GENERAL->DTSCON = ((uint32_t)(offset << SCU_GENERAL_DTSCON_OFFSET_Pos) |
 414              		.loc 1 297 78 view .LVU69
 415 0004 41EA0011 		orr	r1, r1, r0, lsl #4
 299:/opt/XMClib/XMC_Peripheral_Library_v2.1.16/XMCLib/src/xmc4_scu.c ****                         (uint32_t)(0x4UL << SCU_GENERAL_DTSCON_REFTRIM_Pos) |
 416              		.loc 1 299 77 view .LVU70
 417 0008 41F40801 		orr	r1, r1, #8912896
 297:/opt/XMClib/XMC_Peripheral_Library_v2.1.16/XMCLib/src/xmc4_scu.c ****   SCU_GENERAL->DTSCON = ((uint32_t)(offset << SCU_GENERAL_DTSCON_OFFSET_Pos) |
 418              		.loc 1 297 23 view .LVU71
 419 000c C3F88C10 		str	r1, [r3, #140]
 300:/opt/XMClib/XMC_Peripheral_Library_v2.1.16/XMCLib/src/xmc4_scu.c ****                         (uint32_t)(0x8UL << SCU_GENERAL_DTSCON_BGTRIM_Pos));
 301:/opt/XMClib/XMC_Peripheral_Library_v2.1.16/XMCLib/src/xmc4_scu.c **** }
 420              		.loc 1 301 1 view .LVU72
 421 0010 7047     		bx	lr
 422              	.L33:
 423 0012 00BF     		.align	2
 424              	.L32:
 425 0014 00400050 		.word	1342193664
 426              		.cfi_endproc
 427              	.LFE174:
 429              		.section	.text.XMC_SCU_EnableTemperatureSensor,"ax",%progbits
 430              		.align	1
 431              		.p2align 2,,3
 432              		.global	XMC_SCU_EnableTemperatureSensor
 433              		.syntax unified
 434              		.thumb
 435              		.thumb_func
 436              		.fpu fpv4-sp-d16
 438              	XMC_SCU_EnableTemperatureSensor:
 439              	.LFB175:
 302:/opt/XMClib/XMC_Peripheral_Library_v2.1.16/XMCLib/src/xmc4_scu.c **** /* API to enable die temperature measurement by powering the DTS module. */
 303:/opt/XMClib/XMC_Peripheral_Library_v2.1.16/XMCLib/src/xmc4_scu.c **** void XMC_SCU_EnableTemperatureSensor(void)
 304:/opt/XMClib/XMC_Peripheral_Library_v2.1.16/XMCLib/src/xmc4_scu.c **** {
 440              		.loc 1 304 1 is_stmt 1 view -0
 441              		.cfi_startproc
 442              		@ args = 0, pretend = 0, frame = 0
 443              		@ frame_needed = 0, uses_anonymous_args = 0
 444              		@ link register save eliminated.
 305:/opt/XMClib/XMC_Peripheral_Library_v2.1.16/XMCLib/src/xmc4_scu.c ****   SCU_GENERAL->DTSCON &= (uint32_t)~(SCU_GENERAL_DTSCON_PWD_Msk);
 445              		.loc 1 305 3 view .LVU74
 446              		.loc 1 305 23 is_stmt 0 view .LVU75
 447 0000 034A     		ldr	r2, .L35
 448 0002 D2F88C30 		ldr	r3, [r2, #140]
 449 0006 23F00103 		bic	r3, r3, #1
 450 000a C2F88C30 		str	r3, [r2, #140]
 306:/opt/XMClib/XMC_Peripheral_Library_v2.1.16/XMCLib/src/xmc4_scu.c **** }
 451              		.loc 1 306 1 view .LVU76
 452 000e 7047     		bx	lr
 453              	.L36:
 454              		.align	2
 455              	.L35:
 456 0010 00400050 		.word	1342193664
 457              		.cfi_endproc
 458              	.LFE175:
 460              		.section	.text.XMC_SCU_DisableTemperatureSensor,"ax",%progbits
 461              		.align	1
 462              		.p2align 2,,3
 463              		.global	XMC_SCU_DisableTemperatureSensor
 464              		.syntax unified
 465              		.thumb
 466              		.thumb_func
 467              		.fpu fpv4-sp-d16
 469              	XMC_SCU_DisableTemperatureSensor:
 470              	.LFB176:
 307:/opt/XMClib/XMC_Peripheral_Library_v2.1.16/XMCLib/src/xmc4_scu.c **** 
 308:/opt/XMClib/XMC_Peripheral_Library_v2.1.16/XMCLib/src/xmc4_scu.c **** /* API to disable die temperature measurement by powering the DTS module off. */
 309:/opt/XMClib/XMC_Peripheral_Library_v2.1.16/XMCLib/src/xmc4_scu.c **** void XMC_SCU_DisableTemperatureSensor(void)
 310:/opt/XMClib/XMC_Peripheral_Library_v2.1.16/XMCLib/src/xmc4_scu.c **** {
 471              		.loc 1 310 1 is_stmt 1 view -0
 472              		.cfi_startproc
 473              		@ args = 0, pretend = 0, frame = 0
 474              		@ frame_needed = 0, uses_anonymous_args = 0
 475              		@ link register save eliminated.
 311:/opt/XMClib/XMC_Peripheral_Library_v2.1.16/XMCLib/src/xmc4_scu.c ****   SCU_GENERAL->DTSCON |= (uint32_t)SCU_GENERAL_DTSCON_PWD_Msk;
 476              		.loc 1 311 3 view .LVU78
 477              		.loc 1 311 23 is_stmt 0 view .LVU79
 478 0000 034A     		ldr	r2, .L38
 479 0002 D2F88C30 		ldr	r3, [r2, #140]
 480 0006 43F00103 		orr	r3, r3, #1
 481 000a C2F88C30 		str	r3, [r2, #140]
 312:/opt/XMClib/XMC_Peripheral_Library_v2.1.16/XMCLib/src/xmc4_scu.c **** }
 482              		.loc 1 312 1 view .LVU80
 483 000e 7047     		bx	lr
 484              	.L39:
 485              		.align	2
 486              	.L38:
 487 0010 00400050 		.word	1342193664
 488              		.cfi_endproc
 489              	.LFE176:
 491              		.section	.text.XMC_SCU_IsTemperatureSensorEnabled,"ax",%progbits
 492              		.align	1
 493              		.p2align 2,,3
 494              		.global	XMC_SCU_IsTemperatureSensorEnabled
 495              		.syntax unified
 496              		.thumb
 497              		.thumb_func
 498              		.fpu fpv4-sp-d16
 500              	XMC_SCU_IsTemperatureSensorEnabled:
 501              	.LFB177:
 313:/opt/XMClib/XMC_Peripheral_Library_v2.1.16/XMCLib/src/xmc4_scu.c **** 
 314:/opt/XMClib/XMC_Peripheral_Library_v2.1.16/XMCLib/src/xmc4_scu.c **** /* API to provide the die temperature sensor power status. */
 315:/opt/XMClib/XMC_Peripheral_Library_v2.1.16/XMCLib/src/xmc4_scu.c **** bool XMC_SCU_IsTemperatureSensorEnabled(void)
 316:/opt/XMClib/XMC_Peripheral_Library_v2.1.16/XMCLib/src/xmc4_scu.c **** {
 502              		.loc 1 316 1 is_stmt 1 view -0
 503              		.cfi_startproc
 504              		@ args = 0, pretend = 0, frame = 0
 505              		@ frame_needed = 0, uses_anonymous_args = 0
 506              		@ link register save eliminated.
 317:/opt/XMClib/XMC_Peripheral_Library_v2.1.16/XMCLib/src/xmc4_scu.c ****   return ((SCU_GENERAL->DTSCON & SCU_GENERAL_DTSCON_PWD_Msk) == 0U);
 507              		.loc 1 317 3 view .LVU82
 508              		.loc 1 317 23 is_stmt 0 view .LVU83
 509 0000 034B     		ldr	r3, .L41
 510 0002 D3F88C00 		ldr	r0, [r3, #140]
 511              		.loc 1 317 62 view .LVU84
 512 0006 C043     		mvns	r0, r0
 318:/opt/XMClib/XMC_Peripheral_Library_v2.1.16/XMCLib/src/xmc4_scu.c **** }
 513              		.loc 1 318 1 view .LVU85
 514 0008 00F00100 		and	r0, r0, #1
 515 000c 7047     		bx	lr
 516              	.L42:
 517 000e 00BF     		.align	2
 518              	.L41:
 519 0010 00400050 		.word	1342193664
 520              		.cfi_endproc
 521              	.LFE177:
 523              		.section	.text.XMC_SCU_IsTemperatureSensorReady,"ax",%progbits
 524              		.align	1
 525              		.p2align 2,,3
 526              		.global	XMC_SCU_IsTemperatureSensorReady
 527              		.syntax unified
 528              		.thumb
 529              		.thumb_func
 530              		.fpu fpv4-sp-d16
 532              	XMC_SCU_IsTemperatureSensorReady:
 533              	.LFB178:
 319:/opt/XMClib/XMC_Peripheral_Library_v2.1.16/XMCLib/src/xmc4_scu.c **** 
 320:/opt/XMClib/XMC_Peripheral_Library_v2.1.16/XMCLib/src/xmc4_scu.c **** /* API to check if the die temperature sensor is ready to start a measurement. */
 321:/opt/XMClib/XMC_Peripheral_Library_v2.1.16/XMCLib/src/xmc4_scu.c **** bool XMC_SCU_IsTemperatureSensorReady(void)
 322:/opt/XMClib/XMC_Peripheral_Library_v2.1.16/XMCLib/src/xmc4_scu.c **** {
 534              		.loc 1 322 1 is_stmt 1 view -0
 535              		.cfi_startproc
 536              		@ args = 0, pretend = 0, frame = 0
 537              		@ frame_needed = 0, uses_anonymous_args = 0
 538              		@ link register save eliminated.
 323:/opt/XMClib/XMC_Peripheral_Library_v2.1.16/XMCLib/src/xmc4_scu.c ****   return ((SCU_GENERAL->DTSSTAT & SCU_GENERAL_DTSSTAT_RDY_Msk) != 0U);
 539              		.loc 1 323 3 view .LVU87
 540              		.loc 1 323 23 is_stmt 0 view .LVU88
 541 0000 024B     		ldr	r3, .L44
 542 0002 D3F89000 		ldr	r0, [r3, #144]
 324:/opt/XMClib/XMC_Peripheral_Library_v2.1.16/XMCLib/src/xmc4_scu.c **** }
 543              		.loc 1 324 1 view .LVU89
 544 0006 C0F38030 		ubfx	r0, r0, #14, #1
 545 000a 7047     		bx	lr
 546              	.L45:
 547              		.align	2
 548              	.L44:
 549 000c 00400050 		.word	1342193664
 550              		.cfi_endproc
 551              	.LFE178:
 553              		.section	.text.XMC_SCU_StartTemperatureMeasurement,"ax",%progbits
 554              		.align	1
 555              		.p2align 2,,3
 556              		.global	XMC_SCU_StartTemperatureMeasurement
 557              		.syntax unified
 558              		.thumb
 559              		.thumb_func
 560              		.fpu fpv4-sp-d16
 562              	XMC_SCU_StartTemperatureMeasurement:
 563              	.LFB179:
 325:/opt/XMClib/XMC_Peripheral_Library_v2.1.16/XMCLib/src/xmc4_scu.c **** /* API to start device temperature measurements */
 326:/opt/XMClib/XMC_Peripheral_Library_v2.1.16/XMCLib/src/xmc4_scu.c **** XMC_SCU_STATUS_t XMC_SCU_StartTemperatureMeasurement(void)
 327:/opt/XMClib/XMC_Peripheral_Library_v2.1.16/XMCLib/src/xmc4_scu.c **** {
 564              		.loc 1 327 1 is_stmt 1 view -0
 565              		.cfi_startproc
 566              		@ args = 0, pretend = 0, frame = 0
 567              		@ frame_needed = 0, uses_anonymous_args = 0
 568              		@ link register save eliminated.
 328:/opt/XMClib/XMC_Peripheral_Library_v2.1.16/XMCLib/src/xmc4_scu.c ****   XMC_SCU_STATUS_t status = XMC_SCU_STATUS_OK;
 569              		.loc 1 328 3 view .LVU91
 570              	.LVL20:
 329:/opt/XMClib/XMC_Peripheral_Library_v2.1.16/XMCLib/src/xmc4_scu.c **** 
 330:/opt/XMClib/XMC_Peripheral_Library_v2.1.16/XMCLib/src/xmc4_scu.c ****   if (XMC_SCU_IsTemperatureSensorEnabled() == false)
 571              		.loc 1 330 3 view .LVU92
 572              	.LBB52:
 573              	.LBI52:
 315:/opt/XMClib/XMC_Peripheral_Library_v2.1.16/XMCLib/src/xmc4_scu.c **** {
 574              		.loc 1 315 6 view .LVU93
 575              	.LBB53:
 317:/opt/XMClib/XMC_Peripheral_Library_v2.1.16/XMCLib/src/xmc4_scu.c **** }
 576              		.loc 1 317 3 view .LVU94
 317:/opt/XMClib/XMC_Peripheral_Library_v2.1.16/XMCLib/src/xmc4_scu.c **** }
 577              		.loc 1 317 23 is_stmt 0 view .LVU95
 578 0000 084B     		ldr	r3, .L49
 579              	.LBE53:
 580              	.LBE52:
 331:/opt/XMClib/XMC_Peripheral_Library_v2.1.16/XMCLib/src/xmc4_scu.c ****   {
 332:/opt/XMClib/XMC_Peripheral_Library_v2.1.16/XMCLib/src/xmc4_scu.c ****     status = XMC_SCU_STATUS_ERROR;
 333:/opt/XMClib/XMC_Peripheral_Library_v2.1.16/XMCLib/src/xmc4_scu.c ****   }
 334:/opt/XMClib/XMC_Peripheral_Library_v2.1.16/XMCLib/src/xmc4_scu.c ****    
 335:/opt/XMClib/XMC_Peripheral_Library_v2.1.16/XMCLib/src/xmc4_scu.c ****   if (XMC_SCU_IsTemperatureSensorBusy() == true)
 336:/opt/XMClib/XMC_Peripheral_Library_v2.1.16/XMCLib/src/xmc4_scu.c ****   {
 337:/opt/XMClib/XMC_Peripheral_Library_v2.1.16/XMCLib/src/xmc4_scu.c ****     status = XMC_SCU_STATUS_BUSY;
 338:/opt/XMClib/XMC_Peripheral_Library_v2.1.16/XMCLib/src/xmc4_scu.c ****   }
 339:/opt/XMClib/XMC_Peripheral_Library_v2.1.16/XMCLib/src/xmc4_scu.c **** 
 340:/opt/XMClib/XMC_Peripheral_Library_v2.1.16/XMCLib/src/xmc4_scu.c ****   /* And start the measurement */
 341:/opt/XMClib/XMC_Peripheral_Library_v2.1.16/XMCLib/src/xmc4_scu.c ****   SCU_GENERAL->DTSCON |= (uint32_t)SCU_GENERAL_DTSCON_START_Msk;
 581              		.loc 1 341 23 view .LVU96
 582 0002 084A     		ldr	r2, .L49
 583              	.LBB55:
 584              	.LBB54:
 317:/opt/XMClib/XMC_Peripheral_Library_v2.1.16/XMCLib/src/xmc4_scu.c **** }
 585              		.loc 1 317 23 view .LVU97
 586 0004 D3F88C00 		ldr	r0, [r3, #140]
 587              	.LVL21:
 317:/opt/XMClib/XMC_Peripheral_Library_v2.1.16/XMCLib/src/xmc4_scu.c **** }
 588              		.loc 1 317 23 view .LVU98
 589              	.LBE54:
 590              	.LBE55:
 335:/opt/XMClib/XMC_Peripheral_Library_v2.1.16/XMCLib/src/xmc4_scu.c ****   {
 591              		.loc 1 335 3 is_stmt 1 view .LVU99
 592              	.LBB56:
 593              	.LBI56:
 342:/opt/XMClib/XMC_Peripheral_Library_v2.1.16/XMCLib/src/xmc4_scu.c ****   
 343:/opt/XMClib/XMC_Peripheral_Library_v2.1.16/XMCLib/src/xmc4_scu.c ****   return (status);
 344:/opt/XMClib/XMC_Peripheral_Library_v2.1.16/XMCLib/src/xmc4_scu.c **** }
 345:/opt/XMClib/XMC_Peripheral_Library_v2.1.16/XMCLib/src/xmc4_scu.c **** 
 346:/opt/XMClib/XMC_Peripheral_Library_v2.1.16/XMCLib/src/xmc4_scu.c **** /* API to retrieve the temperature measured */
 347:/opt/XMClib/XMC_Peripheral_Library_v2.1.16/XMCLib/src/xmc4_scu.c **** uint32_t XMC_SCU_GetTemperatureMeasurement(void)
 348:/opt/XMClib/XMC_Peripheral_Library_v2.1.16/XMCLib/src/xmc4_scu.c **** {
 349:/opt/XMClib/XMC_Peripheral_Library_v2.1.16/XMCLib/src/xmc4_scu.c ****   uint32_t temperature;
 350:/opt/XMClib/XMC_Peripheral_Library_v2.1.16/XMCLib/src/xmc4_scu.c **** 
 351:/opt/XMClib/XMC_Peripheral_Library_v2.1.16/XMCLib/src/xmc4_scu.c ****   if (XMC_SCU_IsTemperatureSensorEnabled() == false)
 352:/opt/XMClib/XMC_Peripheral_Library_v2.1.16/XMCLib/src/xmc4_scu.c ****   {
 353:/opt/XMClib/XMC_Peripheral_Library_v2.1.16/XMCLib/src/xmc4_scu.c ****     temperature = 0x7FFFFFFFUL;
 354:/opt/XMClib/XMC_Peripheral_Library_v2.1.16/XMCLib/src/xmc4_scu.c ****   }
 355:/opt/XMClib/XMC_Peripheral_Library_v2.1.16/XMCLib/src/xmc4_scu.c ****   else
 356:/opt/XMClib/XMC_Peripheral_Library_v2.1.16/XMCLib/src/xmc4_scu.c ****   {
 357:/opt/XMClib/XMC_Peripheral_Library_v2.1.16/XMCLib/src/xmc4_scu.c ****     temperature = (uint32_t)((SCU_GENERAL->DTSSTAT & SCU_GENERAL_DTSSTAT_RESULT_Msk) >> SCU_GENERAL
 358:/opt/XMClib/XMC_Peripheral_Library_v2.1.16/XMCLib/src/xmc4_scu.c ****   }
 359:/opt/XMClib/XMC_Peripheral_Library_v2.1.16/XMCLib/src/xmc4_scu.c ****   
 360:/opt/XMClib/XMC_Peripheral_Library_v2.1.16/XMCLib/src/xmc4_scu.c ****   return ((uint32_t)temperature);
 361:/opt/XMClib/XMC_Peripheral_Library_v2.1.16/XMCLib/src/xmc4_scu.c **** }
 362:/opt/XMClib/XMC_Peripheral_Library_v2.1.16/XMCLib/src/xmc4_scu.c **** 
 363:/opt/XMClib/XMC_Peripheral_Library_v2.1.16/XMCLib/src/xmc4_scu.c **** /* API to know whether Die temperature sensor is busy */
 364:/opt/XMClib/XMC_Peripheral_Library_v2.1.16/XMCLib/src/xmc4_scu.c **** bool XMC_SCU_IsTemperatureSensorBusy(void)
 594              		.loc 1 364 6 view .LVU100
 595              	.LBB57:
 365:/opt/XMClib/XMC_Peripheral_Library_v2.1.16/XMCLib/src/xmc4_scu.c **** {
 366:/opt/XMClib/XMC_Peripheral_Library_v2.1.16/XMCLib/src/xmc4_scu.c ****   return ((SCU_GENERAL->DTSSTAT & SCU_GENERAL_DTSSTAT_BUSY_Msk) != 0U);
 596              		.loc 1 366 3 view .LVU101
 597              		.loc 1 366 23 is_stmt 0 view .LVU102
 598 0008 D3F89030 		ldr	r3, [r3, #144]
 599              	.LBE57:
 600              	.LBE56:
 335:/opt/XMClib/XMC_Peripheral_Library_v2.1.16/XMCLib/src/xmc4_scu.c ****   {
 601              		.loc 1 335 6 view .LVU103
 602 000c 1B04     		lsls	r3, r3, #16
 341:/opt/XMClib/XMC_Peripheral_Library_v2.1.16/XMCLib/src/xmc4_scu.c ****   
 603              		.loc 1 341 23 view .LVU104
 604 000e D2F88C30 		ldr	r3, [r2, #140]
 605 0012 43F00203 		orr	r3, r3, #2
 328:/opt/XMClib/XMC_Peripheral_Library_v2.1.16/XMCLib/src/xmc4_scu.c **** 
 606              		.loc 1 328 20 view .LVU105
 607 0016 54BF     		ite	pl
 608 0018 00F00100 		andpl	r0, r0, #1
 609              	.LVL22:
 337:/opt/XMClib/XMC_Peripheral_Library_v2.1.16/XMCLib/src/xmc4_scu.c ****   }
 610              		.loc 1 337 12 view .LVU106
 611 001c 0220     		movmi	r0, #2
 612              	.LVL23:
 341:/opt/XMClib/XMC_Peripheral_Library_v2.1.16/XMCLib/src/xmc4_scu.c ****   
 613              		.loc 1 341 3 is_stmt 1 view .LVU107
 341:/opt/XMClib/XMC_Peripheral_Library_v2.1.16/XMCLib/src/xmc4_scu.c ****   
 614              		.loc 1 341 23 is_stmt 0 view .LVU108
 615 001e C2F88C30 		str	r3, [r2, #140]
 343:/opt/XMClib/XMC_Peripheral_Library_v2.1.16/XMCLib/src/xmc4_scu.c **** }
 616              		.loc 1 343 3 is_stmt 1 view .LVU109
 344:/opt/XMClib/XMC_Peripheral_Library_v2.1.16/XMCLib/src/xmc4_scu.c **** 
 617              		.loc 1 344 1 is_stmt 0 view .LVU110
 618 0022 7047     		bx	lr
 619              	.L50:
 620              		.align	2
 621              	.L49:
 622 0024 00400050 		.word	1342193664
 623              		.cfi_endproc
 624              	.LFE179:
 626              		.section	.text.XMC_SCU_GetTemperatureMeasurement,"ax",%progbits
 627              		.align	1
 628              		.p2align 2,,3
 629              		.global	XMC_SCU_GetTemperatureMeasurement
 630              		.syntax unified
 631              		.thumb
 632              		.thumb_func
 633              		.fpu fpv4-sp-d16
 635              	XMC_SCU_GetTemperatureMeasurement:
 636              	.LFB180:
 348:/opt/XMClib/XMC_Peripheral_Library_v2.1.16/XMCLib/src/xmc4_scu.c ****   uint32_t temperature;
 637              		.loc 1 348 1 is_stmt 1 view -0
 638              		.cfi_startproc
 639              		@ args = 0, pretend = 0, frame = 0
 640              		@ frame_needed = 0, uses_anonymous_args = 0
 641              		@ link register save eliminated.
 349:/opt/XMClib/XMC_Peripheral_Library_v2.1.16/XMCLib/src/xmc4_scu.c **** 
 642              		.loc 1 349 3 view .LVU112
 351:/opt/XMClib/XMC_Peripheral_Library_v2.1.16/XMCLib/src/xmc4_scu.c ****   {
 643              		.loc 1 351 3 view .LVU113
 644              	.LBB58:
 645              	.LBI58:
 315:/opt/XMClib/XMC_Peripheral_Library_v2.1.16/XMCLib/src/xmc4_scu.c **** {
 646              		.loc 1 315 6 view .LVU114
 647              	.LBB59:
 317:/opt/XMClib/XMC_Peripheral_Library_v2.1.16/XMCLib/src/xmc4_scu.c **** }
 648              		.loc 1 317 3 view .LVU115
 317:/opt/XMClib/XMC_Peripheral_Library_v2.1.16/XMCLib/src/xmc4_scu.c **** }
 649              		.loc 1 317 23 is_stmt 0 view .LVU116
 650 0000 054B     		ldr	r3, .L54
 651 0002 D3F88C20 		ldr	r2, [r3, #140]
 652              	.LBE59:
 653              	.LBE58:
 351:/opt/XMClib/XMC_Peripheral_Library_v2.1.16/XMCLib/src/xmc4_scu.c ****   {
 654              		.loc 1 351 6 view .LVU117
 655 0006 D207     		lsls	r2, r2, #31
 357:/opt/XMClib/XMC_Peripheral_Library_v2.1.16/XMCLib/src/xmc4_scu.c ****   }
 656              		.loc 1 357 5 is_stmt 1 view .LVU118
 357:/opt/XMClib/XMC_Peripheral_Library_v2.1.16/XMCLib/src/xmc4_scu.c ****   }
 657              		.loc 1 357 42 is_stmt 0 view .LVU119
 658 0008 5ABF     		itte	pl
 659 000a D3F89000 		ldrpl	r0, [r3, #144]
 357:/opt/XMClib/XMC_Peripheral_Library_v2.1.16/XMCLib/src/xmc4_scu.c ****   }
 660              		.loc 1 357 17 view .LVU120
 661 000e C0F30900 		ubfxpl	r0, r0, #0, #10
 662              	.LVL24:
 353:/opt/XMClib/XMC_Peripheral_Library_v2.1.16/XMCLib/src/xmc4_scu.c ****   }
 663              		.loc 1 353 17 view .LVU121
 664 0012 6FF00040 		mvnmi	r0, #-2147483648
 665              	.LVL25:
 360:/opt/XMClib/XMC_Peripheral_Library_v2.1.16/XMCLib/src/xmc4_scu.c **** }
 666              		.loc 1 360 3 is_stmt 1 view .LVU122
 361:/opt/XMClib/XMC_Peripheral_Library_v2.1.16/XMCLib/src/xmc4_scu.c **** 
 667              		.loc 1 361 1 is_stmt 0 view .LVU123
 668 0016 7047     		bx	lr
 669              	.L55:
 670              		.align	2
 671              	.L54:
 672 0018 00400050 		.word	1342193664
 673              		.cfi_endproc
 674              	.LFE180:
 676              		.section	.text.XMC_SCU_IsTemperatureSensorBusy,"ax",%progbits
 677              		.align	1
 678              		.p2align 2,,3
 679              		.global	XMC_SCU_IsTemperatureSensorBusy
 680              		.syntax unified
 681              		.thumb
 682              		.thumb_func
 683              		.fpu fpv4-sp-d16
 685              	XMC_SCU_IsTemperatureSensorBusy:
 686              	.LFB181:
 365:/opt/XMClib/XMC_Peripheral_Library_v2.1.16/XMCLib/src/xmc4_scu.c ****   return ((SCU_GENERAL->DTSSTAT & SCU_GENERAL_DTSSTAT_BUSY_Msk) != 0U);
 687              		.loc 1 365 1 is_stmt 1 view -0
 688              		.cfi_startproc
 689              		@ args = 0, pretend = 0, frame = 0
 690              		@ frame_needed = 0, uses_anonymous_args = 0
 691              		@ link register save eliminated.
 692              		.loc 1 366 3 view .LVU125
 693              		.loc 1 366 23 is_stmt 0 view .LVU126
 694 0000 024B     		ldr	r3, .L57
 695 0002 D3F89000 		ldr	r0, [r3, #144]
 367:/opt/XMClib/XMC_Peripheral_Library_v2.1.16/XMCLib/src/xmc4_scu.c **** }
 696              		.loc 1 367 1 view .LVU127
 697 0006 C0F3C030 		ubfx	r0, r0, #15, #1
 698 000a 7047     		bx	lr
 699              	.L58:
 700              		.align	2
 701              	.L57:
 702 000c 00400050 		.word	1342193664
 703              		.cfi_endproc
 704              	.LFE181:
 706              		.section	.text.XMC_SCU_WriteToRetentionMemory,"ax",%progbits
 707              		.align	1
 708              		.p2align 2,,3
 709              		.global	XMC_SCU_WriteToRetentionMemory
 710              		.syntax unified
 711              		.thumb
 712              		.thumb_func
 713              		.fpu fpv4-sp-d16
 715              	XMC_SCU_WriteToRetentionMemory:
 716              	.LVL26:
 717              	.LFB182:
 368:/opt/XMClib/XMC_Peripheral_Library_v2.1.16/XMCLib/src/xmc4_scu.c **** 
 369:/opt/XMClib/XMC_Peripheral_Library_v2.1.16/XMCLib/src/xmc4_scu.c **** 
 370:/opt/XMClib/XMC_Peripheral_Library_v2.1.16/XMCLib/src/xmc4_scu.c **** #if defined(SCU_GENERAL_DTEMPLIM_LOWER_Msk) && defined(SCU_GENERAL_DTEMPLIM_UPPER_Msk)
 371:/opt/XMClib/XMC_Peripheral_Library_v2.1.16/XMCLib/src/xmc4_scu.c **** /* API to determine if device temperature has gone past the ceiling */
 372:/opt/XMClib/XMC_Peripheral_Library_v2.1.16/XMCLib/src/xmc4_scu.c **** bool XMC_SCU_HighTemperature(void)
 373:/opt/XMClib/XMC_Peripheral_Library_v2.1.16/XMCLib/src/xmc4_scu.c **** {
 374:/opt/XMClib/XMC_Peripheral_Library_v2.1.16/XMCLib/src/xmc4_scu.c ****   bool ret_val;
 375:/opt/XMClib/XMC_Peripheral_Library_v2.1.16/XMCLib/src/xmc4_scu.c ****   uint32_t   dtscon;
 376:/opt/XMClib/XMC_Peripheral_Library_v2.1.16/XMCLib/src/xmc4_scu.c ****   uint32_t   dtempalarm;
 377:/opt/XMClib/XMC_Peripheral_Library_v2.1.16/XMCLib/src/xmc4_scu.c ****   dtscon = SCU_GENERAL->DTSCON;
 378:/opt/XMClib/XMC_Peripheral_Library_v2.1.16/XMCLib/src/xmc4_scu.c ****   dtscon = dtscon & SCU_GENERAL_DTSCON_PWD_Msk;
 379:/opt/XMClib/XMC_Peripheral_Library_v2.1.16/XMCLib/src/xmc4_scu.c **** 
 380:/opt/XMClib/XMC_Peripheral_Library_v2.1.16/XMCLib/src/xmc4_scu.c ****   ret_val = false;
 381:/opt/XMClib/XMC_Peripheral_Library_v2.1.16/XMCLib/src/xmc4_scu.c **** 
 382:/opt/XMClib/XMC_Peripheral_Library_v2.1.16/XMCLib/src/xmc4_scu.c ****   /* Any audit makes sense only if the DTS were powered up */  
 383:/opt/XMClib/XMC_Peripheral_Library_v2.1.16/XMCLib/src/xmc4_scu.c ****   if(dtscon)
 384:/opt/XMClib/XMC_Peripheral_Library_v2.1.16/XMCLib/src/xmc4_scu.c ****   {
 385:/opt/XMClib/XMC_Peripheral_Library_v2.1.16/XMCLib/src/xmc4_scu.c ****     /* Powered down - return false */
 386:/opt/XMClib/XMC_Peripheral_Library_v2.1.16/XMCLib/src/xmc4_scu.c ****     ret_val = false;
 387:/opt/XMClib/XMC_Peripheral_Library_v2.1.16/XMCLib/src/xmc4_scu.c ****   }
 388:/opt/XMClib/XMC_Peripheral_Library_v2.1.16/XMCLib/src/xmc4_scu.c ****   else
 389:/opt/XMClib/XMC_Peripheral_Library_v2.1.16/XMCLib/src/xmc4_scu.c ****   {
 390:/opt/XMClib/XMC_Peripheral_Library_v2.1.16/XMCLib/src/xmc4_scu.c ****     /* Powered up - Read the overflow bit and decide accordingly*/
 391:/opt/XMClib/XMC_Peripheral_Library_v2.1.16/XMCLib/src/xmc4_scu.c ****     dtempalarm = SCU_GENERAL->DTEMPALARM;
 392:/opt/XMClib/XMC_Peripheral_Library_v2.1.16/XMCLib/src/xmc4_scu.c ****     dtempalarm = dtempalarm & SCU_GENERAL_DTEMPALARM_OVERFL_Msk;
 393:/opt/XMClib/XMC_Peripheral_Library_v2.1.16/XMCLib/src/xmc4_scu.c ****     
 394:/opt/XMClib/XMC_Peripheral_Library_v2.1.16/XMCLib/src/xmc4_scu.c ****     if(dtempalarm)
 395:/opt/XMClib/XMC_Peripheral_Library_v2.1.16/XMCLib/src/xmc4_scu.c ****     {
 396:/opt/XMClib/XMC_Peripheral_Library_v2.1.16/XMCLib/src/xmc4_scu.c ****       ret_val = true;
 397:/opt/XMClib/XMC_Peripheral_Library_v2.1.16/XMCLib/src/xmc4_scu.c ****     }
 398:/opt/XMClib/XMC_Peripheral_Library_v2.1.16/XMCLib/src/xmc4_scu.c ****     else
 399:/opt/XMClib/XMC_Peripheral_Library_v2.1.16/XMCLib/src/xmc4_scu.c ****     {
 400:/opt/XMClib/XMC_Peripheral_Library_v2.1.16/XMCLib/src/xmc4_scu.c ****       ret_val = false;
 401:/opt/XMClib/XMC_Peripheral_Library_v2.1.16/XMCLib/src/xmc4_scu.c ****     }
 402:/opt/XMClib/XMC_Peripheral_Library_v2.1.16/XMCLib/src/xmc4_scu.c ****   }
 403:/opt/XMClib/XMC_Peripheral_Library_v2.1.16/XMCLib/src/xmc4_scu.c ****   return (ret_val);
 404:/opt/XMClib/XMC_Peripheral_Library_v2.1.16/XMCLib/src/xmc4_scu.c **** }
 405:/opt/XMClib/XMC_Peripheral_Library_v2.1.16/XMCLib/src/xmc4_scu.c **** 
 406:/opt/XMClib/XMC_Peripheral_Library_v2.1.16/XMCLib/src/xmc4_scu.c **** /* API to program raw values of temperature limits into the DTS */
 407:/opt/XMClib/XMC_Peripheral_Library_v2.1.16/XMCLib/src/xmc4_scu.c **** void XMC_SCU_SetRawTempLimits(const uint32_t lower_temp, const uint32_t upper_temp)
 408:/opt/XMClib/XMC_Peripheral_Library_v2.1.16/XMCLib/src/xmc4_scu.c **** {
 409:/opt/XMClib/XMC_Peripheral_Library_v2.1.16/XMCLib/src/xmc4_scu.c ****   /* Power up the DTS module */
 410:/opt/XMClib/XMC_Peripheral_Library_v2.1.16/XMCLib/src/xmc4_scu.c ****   SCU_GENERAL->DTSCON &= (uint32_t)~SCU_GENERAL_DTSCON_PWD_Msk;
 411:/opt/XMClib/XMC_Peripheral_Library_v2.1.16/XMCLib/src/xmc4_scu.c ****   SCU_GENERAL->DTEMPLIM = 0;
 412:/opt/XMClib/XMC_Peripheral_Library_v2.1.16/XMCLib/src/xmc4_scu.c ****   SCU_GENERAL->DTEMPLIM = (lower_temp & SCU_GENERAL_DTEMPLIM_LOWER_Msk);
 413:/opt/XMClib/XMC_Peripheral_Library_v2.1.16/XMCLib/src/xmc4_scu.c ****   SCU_GENERAL->DTEMPLIM |= (uint32_t)((upper_temp & SCU_GENERAL_DTEMPLIM_LOWER_Msk) << SCU_GENERAL_
 414:/opt/XMClib/XMC_Peripheral_Library_v2.1.16/XMCLib/src/xmc4_scu.c **** }
 415:/opt/XMClib/XMC_Peripheral_Library_v2.1.16/XMCLib/src/xmc4_scu.c **** 
 416:/opt/XMClib/XMC_Peripheral_Library_v2.1.16/XMCLib/src/xmc4_scu.c **** /* API to determine if device temperature has gone below the stipulated limit */
 417:/opt/XMClib/XMC_Peripheral_Library_v2.1.16/XMCLib/src/xmc4_scu.c **** bool XMC_SCU_LowTemperature(void)
 418:/opt/XMClib/XMC_Peripheral_Library_v2.1.16/XMCLib/src/xmc4_scu.c **** {
 419:/opt/XMClib/XMC_Peripheral_Library_v2.1.16/XMCLib/src/xmc4_scu.c ****   bool ret_val;
 420:/opt/XMClib/XMC_Peripheral_Library_v2.1.16/XMCLib/src/xmc4_scu.c ****   uint32_t   dtscon;
 421:/opt/XMClib/XMC_Peripheral_Library_v2.1.16/XMCLib/src/xmc4_scu.c ****   uint32_t   dtempalarm;
 422:/opt/XMClib/XMC_Peripheral_Library_v2.1.16/XMCLib/src/xmc4_scu.c ****   dtscon = SCU_GENERAL->DTSCON;
 423:/opt/XMClib/XMC_Peripheral_Library_v2.1.16/XMCLib/src/xmc4_scu.c ****   dtscon = dtscon & SCU_GENERAL_DTSCON_PWD_Msk;
 424:/opt/XMClib/XMC_Peripheral_Library_v2.1.16/XMCLib/src/xmc4_scu.c **** 
 425:/opt/XMClib/XMC_Peripheral_Library_v2.1.16/XMCLib/src/xmc4_scu.c ****   ret_val = false;
 426:/opt/XMClib/XMC_Peripheral_Library_v2.1.16/XMCLib/src/xmc4_scu.c **** 
 427:/opt/XMClib/XMC_Peripheral_Library_v2.1.16/XMCLib/src/xmc4_scu.c ****   /* Any audit makes sense only if the DTS were powered up */  
 428:/opt/XMClib/XMC_Peripheral_Library_v2.1.16/XMCLib/src/xmc4_scu.c ****   if(dtscon)
 429:/opt/XMClib/XMC_Peripheral_Library_v2.1.16/XMCLib/src/xmc4_scu.c ****   {
 430:/opt/XMClib/XMC_Peripheral_Library_v2.1.16/XMCLib/src/xmc4_scu.c ****     /* Powered down - return false */
 431:/opt/XMClib/XMC_Peripheral_Library_v2.1.16/XMCLib/src/xmc4_scu.c ****     ret_val = false;
 432:/opt/XMClib/XMC_Peripheral_Library_v2.1.16/XMCLib/src/xmc4_scu.c ****   }
 433:/opt/XMClib/XMC_Peripheral_Library_v2.1.16/XMCLib/src/xmc4_scu.c ****   else
 434:/opt/XMClib/XMC_Peripheral_Library_v2.1.16/XMCLib/src/xmc4_scu.c ****   {
 435:/opt/XMClib/XMC_Peripheral_Library_v2.1.16/XMCLib/src/xmc4_scu.c ****     /* Powered up - Read the overflow bit and decide accordingly*/
 436:/opt/XMClib/XMC_Peripheral_Library_v2.1.16/XMCLib/src/xmc4_scu.c ****     dtempalarm = SCU_GENERAL->DTEMPALARM;
 437:/opt/XMClib/XMC_Peripheral_Library_v2.1.16/XMCLib/src/xmc4_scu.c ****     dtempalarm = dtempalarm & SCU_GENERAL_DTEMPALARM_UNDERFL_Msk;
 438:/opt/XMClib/XMC_Peripheral_Library_v2.1.16/XMCLib/src/xmc4_scu.c ****     
 439:/opt/XMClib/XMC_Peripheral_Library_v2.1.16/XMCLib/src/xmc4_scu.c ****     if(dtempalarm)
 440:/opt/XMClib/XMC_Peripheral_Library_v2.1.16/XMCLib/src/xmc4_scu.c ****     {
 441:/opt/XMClib/XMC_Peripheral_Library_v2.1.16/XMCLib/src/xmc4_scu.c ****       ret_val = true;
 442:/opt/XMClib/XMC_Peripheral_Library_v2.1.16/XMCLib/src/xmc4_scu.c ****     }
 443:/opt/XMClib/XMC_Peripheral_Library_v2.1.16/XMCLib/src/xmc4_scu.c ****     else
 444:/opt/XMClib/XMC_Peripheral_Library_v2.1.16/XMCLib/src/xmc4_scu.c ****     {
 445:/opt/XMClib/XMC_Peripheral_Library_v2.1.16/XMCLib/src/xmc4_scu.c ****       ret_val = false;
 446:/opt/XMClib/XMC_Peripheral_Library_v2.1.16/XMCLib/src/xmc4_scu.c ****     }
 447:/opt/XMClib/XMC_Peripheral_Library_v2.1.16/XMCLib/src/xmc4_scu.c ****   }
 448:/opt/XMClib/XMC_Peripheral_Library_v2.1.16/XMCLib/src/xmc4_scu.c ****   
 449:/opt/XMClib/XMC_Peripheral_Library_v2.1.16/XMCLib/src/xmc4_scu.c ****   return (ret_val);
 450:/opt/XMClib/XMC_Peripheral_Library_v2.1.16/XMCLib/src/xmc4_scu.c **** }
 451:/opt/XMClib/XMC_Peripheral_Library_v2.1.16/XMCLib/src/xmc4_scu.c **** #endif  
 452:/opt/XMClib/XMC_Peripheral_Library_v2.1.16/XMCLib/src/xmc4_scu.c **** 
 453:/opt/XMClib/XMC_Peripheral_Library_v2.1.16/XMCLib/src/xmc4_scu.c **** /* API to write into Retention memory in hibernate domain */
 454:/opt/XMClib/XMC_Peripheral_Library_v2.1.16/XMCLib/src/xmc4_scu.c **** void XMC_SCU_WriteToRetentionMemory(uint32_t address, uint32_t data)
 455:/opt/XMClib/XMC_Peripheral_Library_v2.1.16/XMCLib/src/xmc4_scu.c **** {
 718              		.loc 1 455 1 is_stmt 1 view -0
 719              		.cfi_startproc
 720              		@ args = 0, pretend = 0, frame = 0
 721              		@ frame_needed = 0, uses_anonymous_args = 0
 722              		@ link register save eliminated.
 456:/opt/XMClib/XMC_Peripheral_Library_v2.1.16/XMCLib/src/xmc4_scu.c ****   uint32_t rmacr;
 723              		.loc 1 456 3 view .LVU129
 457:/opt/XMClib/XMC_Peripheral_Library_v2.1.16/XMCLib/src/xmc4_scu.c ****   
 458:/opt/XMClib/XMC_Peripheral_Library_v2.1.16/XMCLib/src/xmc4_scu.c ****   /* Get the address right */  
 459:/opt/XMClib/XMC_Peripheral_Library_v2.1.16/XMCLib/src/xmc4_scu.c ****   rmacr = (uint32_t)((address << SCU_GENERAL_RMACR_ADDR_Pos) & (uint32_t)SCU_GENERAL_RMACR_ADDR_Msk
 724              		.loc 1 459 3 view .LVU130
 725              		.loc 1 459 31 is_stmt 0 view .LVU131
 726 0000 0004     		lsls	r0, r0, #16
 727              	.LVL27:
 460:/opt/XMClib/XMC_Peripheral_Library_v2.1.16/XMCLib/src/xmc4_scu.c ****   
 461:/opt/XMClib/XMC_Peripheral_Library_v2.1.16/XMCLib/src/xmc4_scu.c ****   /* Transfer from RMDATA to Retention memory */
 462:/opt/XMClib/XMC_Peripheral_Library_v2.1.16/XMCLib/src/xmc4_scu.c ****   rmacr |= (uint32_t)(SCU_GENERAL_RMACR_RDWR_Msk);
 463:/opt/XMClib/XMC_Peripheral_Library_v2.1.16/XMCLib/src/xmc4_scu.c ****   
 464:/opt/XMClib/XMC_Peripheral_Library_v2.1.16/XMCLib/src/xmc4_scu.c ****   /* Write desired data into RMDATA register */  
 465:/opt/XMClib/XMC_Peripheral_Library_v2.1.16/XMCLib/src/xmc4_scu.c ****   SCU_GENERAL->RMDATA = data;
 728              		.loc 1 465 23 view .LVU132
 729 0002 074A     		ldr	r2, .L62
 459:/opt/XMClib/XMC_Peripheral_Library_v2.1.16/XMCLib/src/xmc4_scu.c ****   
 730              		.loc 1 459 9 view .LVU133
 731 0004 00F47020 		and	r0, r0, #983040
 732              	.LVL28:
 462:/opt/XMClib/XMC_Peripheral_Library_v2.1.16/XMCLib/src/xmc4_scu.c ****   
 733              		.loc 1 462 3 is_stmt 1 view .LVU134
 462:/opt/XMClib/XMC_Peripheral_Library_v2.1.16/XMCLib/src/xmc4_scu.c ****   
 734              		.loc 1 462 9 is_stmt 0 view .LVU135
 735 0008 40F00100 		orr	r0, r0, #1
 736              	.LVL29:
 737              		.loc 1 465 3 is_stmt 1 view .LVU136
 738              		.loc 1 465 23 is_stmt 0 view .LVU137
 739 000c C2F8CC10 		str	r1, [r2, #204]
 466:/opt/XMClib/XMC_Peripheral_Library_v2.1.16/XMCLib/src/xmc4_scu.c ****   
 467:/opt/XMClib/XMC_Peripheral_Library_v2.1.16/XMCLib/src/xmc4_scu.c ****   /* Write address & direction of transfer into RMACR register */  
 468:/opt/XMClib/XMC_Peripheral_Library_v2.1.16/XMCLib/src/xmc4_scu.c ****   SCU_GENERAL->RMACR = rmacr;
 740              		.loc 1 468 3 is_stmt 1 view .LVU138
 741              		.loc 1 468 22 is_stmt 0 view .LVU139
 742 0010 C2F8C800 		str	r0, [r2, #200]
 469:/opt/XMClib/XMC_Peripheral_Library_v2.1.16/XMCLib/src/xmc4_scu.c ****   
 470:/opt/XMClib/XMC_Peripheral_Library_v2.1.16/XMCLib/src/xmc4_scu.c ****   /* Wait until the update of RMX register in hibernate domain is completed */
 471:/opt/XMClib/XMC_Peripheral_Library_v2.1.16/XMCLib/src/xmc4_scu.c ****   while((SCU_GENERAL->MIRRSTS) & SCU_GENERAL_MIRRSTS_RMX_Msk)
 743              		.loc 1 471 3 is_stmt 1 view .LVU140
 744              	.L60:
 472:/opt/XMClib/XMC_Peripheral_Library_v2.1.16/XMCLib/src/xmc4_scu.c ****   {
 473:/opt/XMClib/XMC_Peripheral_Library_v2.1.16/XMCLib/src/xmc4_scu.c ****   }
 745              		.loc 1 473 3 discriminator 1 view .LVU141
 471:/opt/XMClib/XMC_Peripheral_Library_v2.1.16/XMCLib/src/xmc4_scu.c ****   {
 746              		.loc 1 471 8 discriminator 1 view .LVU142
 471:/opt/XMClib/XMC_Peripheral_Library_v2.1.16/XMCLib/src/xmc4_scu.c ****   {
 747              		.loc 1 471 21 is_stmt 0 discriminator 1 view .LVU143
 748 0014 D2F8C430 		ldr	r3, [r2, #196]
 471:/opt/XMClib/XMC_Peripheral_Library_v2.1.16/XMCLib/src/xmc4_scu.c ****   {
 749              		.loc 1 471 8 discriminator 1 view .LVU144
 750 0018 9B04     		lsls	r3, r3, #18
 751 001a FBD4     		bmi	.L60
 474:/opt/XMClib/XMC_Peripheral_Library_v2.1.16/XMCLib/src/xmc4_scu.c **** }
 752              		.loc 1 474 1 view .LVU145
 753 001c 7047     		bx	lr
 754              	.L63:
 755 001e 00BF     		.align	2
 756              	.L62:
 757 0020 00400050 		.word	1342193664
 758              		.cfi_endproc
 759              	.LFE182:
 761              		.section	.text.XMC_SCU_ReadFromRetentionMemory,"ax",%progbits
 762              		.align	1
 763              		.p2align 2,,3
 764              		.global	XMC_SCU_ReadFromRetentionMemory
 765              		.syntax unified
 766              		.thumb
 767              		.thumb_func
 768              		.fpu fpv4-sp-d16
 770              	XMC_SCU_ReadFromRetentionMemory:
 771              	.LVL30:
 772              	.LFB183:
 475:/opt/XMClib/XMC_Peripheral_Library_v2.1.16/XMCLib/src/xmc4_scu.c **** 
 476:/opt/XMClib/XMC_Peripheral_Library_v2.1.16/XMCLib/src/xmc4_scu.c **** /* API to read from Retention memory in hibernate domain */
 477:/opt/XMClib/XMC_Peripheral_Library_v2.1.16/XMCLib/src/xmc4_scu.c **** uint32_t XMC_SCU_ReadFromRetentionMemory(uint32_t address)
 478:/opt/XMClib/XMC_Peripheral_Library_v2.1.16/XMCLib/src/xmc4_scu.c **** {
 773              		.loc 1 478 1 is_stmt 1 view -0
 774              		.cfi_startproc
 775              		@ args = 0, pretend = 0, frame = 0
 776              		@ frame_needed = 0, uses_anonymous_args = 0
 777              		@ link register save eliminated.
 479:/opt/XMClib/XMC_Peripheral_Library_v2.1.16/XMCLib/src/xmc4_scu.c ****   uint32_t rmacr;
 778              		.loc 1 479 3 view .LVU147
 480:/opt/XMClib/XMC_Peripheral_Library_v2.1.16/XMCLib/src/xmc4_scu.c **** 
 481:/opt/XMClib/XMC_Peripheral_Library_v2.1.16/XMCLib/src/xmc4_scu.c ****   /* Get the address right */  
 482:/opt/XMClib/XMC_Peripheral_Library_v2.1.16/XMCLib/src/xmc4_scu.c ****   rmacr = ((uint32_t)(address << SCU_GENERAL_RMACR_ADDR_Pos) & (uint32_t)SCU_GENERAL_RMACR_ADDR_Msk
 779              		.loc 1 482 3 view .LVU148
 483:/opt/XMClib/XMC_Peripheral_Library_v2.1.16/XMCLib/src/xmc4_scu.c ****   
 484:/opt/XMClib/XMC_Peripheral_Library_v2.1.16/XMCLib/src/xmc4_scu.c ****   /* Transfer from RMDATA to Retention memory */
 485:/opt/XMClib/XMC_Peripheral_Library_v2.1.16/XMCLib/src/xmc4_scu.c ****   rmacr &= ~((uint32_t)(SCU_GENERAL_RMACR_RDWR_Msk));
 486:/opt/XMClib/XMC_Peripheral_Library_v2.1.16/XMCLib/src/xmc4_scu.c ****   
 487:/opt/XMClib/XMC_Peripheral_Library_v2.1.16/XMCLib/src/xmc4_scu.c ****   /* Writing an adress & direction of transfer into RMACR register */  
 488:/opt/XMClib/XMC_Peripheral_Library_v2.1.16/XMCLib/src/xmc4_scu.c ****   SCU_GENERAL->RMACR = rmacr;
 780              		.loc 1 488 22 is_stmt 0 view .LVU149
 781 0000 064A     		ldr	r2, .L67
 482:/opt/XMClib/XMC_Peripheral_Library_v2.1.16/XMCLib/src/xmc4_scu.c ****   
 782              		.loc 1 482 31 view .LVU150
 783 0002 0004     		lsls	r0, r0, #16
 784              	.LVL31:
 482:/opt/XMClib/XMC_Peripheral_Library_v2.1.16/XMCLib/src/xmc4_scu.c ****   
 785              		.loc 1 482 9 view .LVU151
 786 0004 00F47020 		and	r0, r0, #983040
 787              	.LVL32:
 485:/opt/XMClib/XMC_Peripheral_Library_v2.1.16/XMCLib/src/xmc4_scu.c ****   
 788              		.loc 1 485 3 is_stmt 1 view .LVU152
 789              		.loc 1 488 3 view .LVU153
 790              		.loc 1 488 22 is_stmt 0 view .LVU154
 791 0008 C2F8C800 		str	r0, [r2, #200]
 489:/opt/XMClib/XMC_Peripheral_Library_v2.1.16/XMCLib/src/xmc4_scu.c ****   
 490:/opt/XMClib/XMC_Peripheral_Library_v2.1.16/XMCLib/src/xmc4_scu.c ****   /* Wait until the update of RMX register in hibernate domain is completed */
 491:/opt/XMClib/XMC_Peripheral_Library_v2.1.16/XMCLib/src/xmc4_scu.c ****   while((SCU_GENERAL->MIRRSTS) & SCU_GENERAL_MIRRSTS_RMX_Msk)
 792              		.loc 1 491 3 is_stmt 1 view .LVU155
 793              	.L65:
 492:/opt/XMClib/XMC_Peripheral_Library_v2.1.16/XMCLib/src/xmc4_scu.c ****   {
 493:/opt/XMClib/XMC_Peripheral_Library_v2.1.16/XMCLib/src/xmc4_scu.c ****   }
 794              		.loc 1 493 3 discriminator 1 view .LVU156
 491:/opt/XMClib/XMC_Peripheral_Library_v2.1.16/XMCLib/src/xmc4_scu.c ****   {
 795              		.loc 1 491 8 discriminator 1 view .LVU157
 491:/opt/XMClib/XMC_Peripheral_Library_v2.1.16/XMCLib/src/xmc4_scu.c ****   {
 796              		.loc 1 491 21 is_stmt 0 discriminator 1 view .LVU158
 797 000c D2F8C430 		ldr	r3, [r2, #196]
 491:/opt/XMClib/XMC_Peripheral_Library_v2.1.16/XMCLib/src/xmc4_scu.c ****   {
 798              		.loc 1 491 8 discriminator 1 view .LVU159
 799 0010 9B04     		lsls	r3, r3, #18
 800 0012 FBD4     		bmi	.L65
 494:/opt/XMClib/XMC_Peripheral_Library_v2.1.16/XMCLib/src/xmc4_scu.c **** 
 495:/opt/XMClib/XMC_Peripheral_Library_v2.1.16/XMCLib/src/xmc4_scu.c ****   return (SCU_GENERAL->RMDATA);
 801              		.loc 1 495 3 is_stmt 1 view .LVU160
 802              		.loc 1 495 22 is_stmt 0 view .LVU161
 803 0014 D2F8CC00 		ldr	r0, [r2, #204]
 804              	.LVL33:
 496:/opt/XMClib/XMC_Peripheral_Library_v2.1.16/XMCLib/src/xmc4_scu.c **** }
 805              		.loc 1 496 1 view .LVU162
 806 0018 7047     		bx	lr
 807              	.L68:
 808 001a 00BF     		.align	2
 809              	.L67:
 810 001c 00400050 		.word	1342193664
 811              		.cfi_endproc
 812              	.LFE183:
 814              		.section	.text.XMC_SCU_TRAP_Enable,"ax",%progbits
 815              		.align	1
 816              		.p2align 2,,3
 817              		.global	XMC_SCU_TRAP_Enable
 818              		.syntax unified
 819              		.thumb
 820              		.thumb_func
 821              		.fpu fpv4-sp-d16
 823              	XMC_SCU_TRAP_Enable:
 824              	.LVL34:
 825              	.LFB185:
 497:/opt/XMClib/XMC_Peripheral_Library_v2.1.16/XMCLib/src/xmc4_scu.c **** 
 498:/opt/XMClib/XMC_Peripheral_Library_v2.1.16/XMCLib/src/xmc4_scu.c **** /* API to initialize the clock tree */
 499:/opt/XMClib/XMC_Peripheral_Library_v2.1.16/XMCLib/src/xmc4_scu.c **** void XMC_SCU_CLOCK_Init(const XMC_SCU_CLOCK_CONFIG_t *const config)
 500:/opt/XMClib/XMC_Peripheral_Library_v2.1.16/XMCLib/src/xmc4_scu.c **** {
 501:/opt/XMClib/XMC_Peripheral_Library_v2.1.16/XMCLib/src/xmc4_scu.c ****   XMC_ASSERT("", config->fsys_clkdiv != 0);
 502:/opt/XMClib/XMC_Peripheral_Library_v2.1.16/XMCLib/src/xmc4_scu.c ****   XMC_ASSERT("", config->fcpu_clkdiv != 0);
 503:/opt/XMClib/XMC_Peripheral_Library_v2.1.16/XMCLib/src/xmc4_scu.c ****   XMC_ASSERT("", config->fccu_clkdiv != 0);
 504:/opt/XMClib/XMC_Peripheral_Library_v2.1.16/XMCLib/src/xmc4_scu.c ****   XMC_ASSERT("", config->fperipheral_clkdiv != 0);
 505:/opt/XMClib/XMC_Peripheral_Library_v2.1.16/XMCLib/src/xmc4_scu.c ****   XMC_ASSERT("", ((config->syspll_config.p_div != 0) &&
 506:/opt/XMClib/XMC_Peripheral_Library_v2.1.16/XMCLib/src/xmc4_scu.c ****                   (config->syspll_config.mode == XMC_SCU_CLOCK_SYSPLL_MODE_NORMAL)) ||
 507:/opt/XMClib/XMC_Peripheral_Library_v2.1.16/XMCLib/src/xmc4_scu.c ****                   (config->syspll_config.mode == XMC_SCU_CLOCK_SYSPLL_MODE_PRESCALAR));
 508:/opt/XMClib/XMC_Peripheral_Library_v2.1.16/XMCLib/src/xmc4_scu.c ****   XMC_ASSERT("", ((config->syspll_config.n_div != 0) &&
 509:/opt/XMClib/XMC_Peripheral_Library_v2.1.16/XMCLib/src/xmc4_scu.c ****                   (config->syspll_config.mode == XMC_SCU_CLOCK_SYSPLL_MODE_NORMAL)) ||
 510:/opt/XMClib/XMC_Peripheral_Library_v2.1.16/XMCLib/src/xmc4_scu.c ****                   (config->syspll_config.mode == XMC_SCU_CLOCK_SYSPLL_MODE_PRESCALAR));
 511:/opt/XMClib/XMC_Peripheral_Library_v2.1.16/XMCLib/src/xmc4_scu.c ****   XMC_ASSERT("", (config->syspll_config.k_div != 0) &&
 512:/opt/XMClib/XMC_Peripheral_Library_v2.1.16/XMCLib/src/xmc4_scu.c ****                  ((config->syspll_config.mode == XMC_SCU_CLOCK_SYSPLL_MODE_NORMAL) ||
 513:/opt/XMClib/XMC_Peripheral_Library_v2.1.16/XMCLib/src/xmc4_scu.c ****                   (config->syspll_config.mode == XMC_SCU_CLOCK_SYSPLL_MODE_PRESCALAR)));
 514:/opt/XMClib/XMC_Peripheral_Library_v2.1.16/XMCLib/src/xmc4_scu.c ****   XMC_ASSERT("", ((config->fsys_clksrc == XMC_SCU_CLOCK_SYSCLKSRC_PLL) ||
 515:/opt/XMClib/XMC_Peripheral_Library_v2.1.16/XMCLib/src/xmc4_scu.c ****                  (config->fsys_clksrc == XMC_SCU_CLOCK_SYSCLKSRC_OFI)) &&
 516:/opt/XMClib/XMC_Peripheral_Library_v2.1.16/XMCLib/src/xmc4_scu.c ****                  ((config->syspll_config.mode == XMC_SCU_CLOCK_SYSPLL_MODE_NORMAL) ||
 517:/opt/XMClib/XMC_Peripheral_Library_v2.1.16/XMCLib/src/xmc4_scu.c ****                   (config->syspll_config.mode == XMC_SCU_CLOCK_SYSPLL_MODE_PRESCALAR)));
 518:/opt/XMClib/XMC_Peripheral_Library_v2.1.16/XMCLib/src/xmc4_scu.c ****   XMC_ASSERT("", ((config->fstdby_clksrc == XMC_SCU_HIB_STDBYCLKSRC_OSCULP) && (config->enable_oscu
 519:/opt/XMClib/XMC_Peripheral_Library_v2.1.16/XMCLib/src/xmc4_scu.c ****                  (config->fstdby_clksrc != XMC_SCU_HIB_STDBYCLKSRC_OSCULP));
 520:/opt/XMClib/XMC_Peripheral_Library_v2.1.16/XMCLib/src/xmc4_scu.c ****   XMC_ASSERT("", ((config->syspll_config.clksrc == XMC_SCU_CLOCK_SYSPLLCLKSRC_OSCHP) &&
 521:/opt/XMClib/XMC_Peripheral_Library_v2.1.16/XMCLib/src/xmc4_scu.c ****                  (config->enable_oschp == true)) || (config->syspll_config.clksrc != XMC_SCU_CLOCK_
 522:/opt/XMClib/XMC_Peripheral_Library_v2.1.16/XMCLib/src/xmc4_scu.c **** 
 523:/opt/XMClib/XMC_Peripheral_Library_v2.1.16/XMCLib/src/xmc4_scu.c ****   XMC_SCU_CLOCK_SetSystemClockSource(XMC_SCU_CLOCK_SYSCLKSRC_OFI);
 524:/opt/XMClib/XMC_Peripheral_Library_v2.1.16/XMCLib/src/xmc4_scu.c **** 
 525:/opt/XMClib/XMC_Peripheral_Library_v2.1.16/XMCLib/src/xmc4_scu.c ****   XMC_SCU_HIB_EnableHibernateDomain();
 526:/opt/XMClib/XMC_Peripheral_Library_v2.1.16/XMCLib/src/xmc4_scu.c **** 
 527:/opt/XMClib/XMC_Peripheral_Library_v2.1.16/XMCLib/src/xmc4_scu.c ****   if (config->enable_osculp == true)
 528:/opt/XMClib/XMC_Peripheral_Library_v2.1.16/XMCLib/src/xmc4_scu.c ****   {
 529:/opt/XMClib/XMC_Peripheral_Library_v2.1.16/XMCLib/src/xmc4_scu.c ****     XMC_SCU_CLOCK_EnableLowPowerOscillator();
 530:/opt/XMClib/XMC_Peripheral_Library_v2.1.16/XMCLib/src/xmc4_scu.c ****     while (XMC_SCU_CLOCK_IsLowPowerOscillatorStable() == false);
 531:/opt/XMClib/XMC_Peripheral_Library_v2.1.16/XMCLib/src/xmc4_scu.c ****   }
 532:/opt/XMClib/XMC_Peripheral_Library_v2.1.16/XMCLib/src/xmc4_scu.c ****   
 533:/opt/XMClib/XMC_Peripheral_Library_v2.1.16/XMCLib/src/xmc4_scu.c ****   XMC_SCU_HIB_SetStandbyClockSource(config->fstdby_clksrc);  
 534:/opt/XMClib/XMC_Peripheral_Library_v2.1.16/XMCLib/src/xmc4_scu.c ****   while (XMC_SCU_GetMirrorStatus() != 0)
 535:/opt/XMClib/XMC_Peripheral_Library_v2.1.16/XMCLib/src/xmc4_scu.c ****   {
 536:/opt/XMClib/XMC_Peripheral_Library_v2.1.16/XMCLib/src/xmc4_scu.c ****     /* Wait until update of the stanby clock source is done in the HIB domain */    
 537:/opt/XMClib/XMC_Peripheral_Library_v2.1.16/XMCLib/src/xmc4_scu.c ****   }
 538:/opt/XMClib/XMC_Peripheral_Library_v2.1.16/XMCLib/src/xmc4_scu.c **** 
 539:/opt/XMClib/XMC_Peripheral_Library_v2.1.16/XMCLib/src/xmc4_scu.c ****   XMC_SCU_CLOCK_SetBackupClockCalibrationMode(config->calibration_mode);
 540:/opt/XMClib/XMC_Peripheral_Library_v2.1.16/XMCLib/src/xmc4_scu.c **** 
 541:/opt/XMClib/XMC_Peripheral_Library_v2.1.16/XMCLib/src/xmc4_scu.c ****   XMC_SCU_CLOCK_SetSystemClockDivider((uint32_t)config->fsys_clkdiv);
 542:/opt/XMClib/XMC_Peripheral_Library_v2.1.16/XMCLib/src/xmc4_scu.c ****   XMC_SCU_CLOCK_SetCpuClockDivider((uint32_t)config->fcpu_clkdiv);
 543:/opt/XMClib/XMC_Peripheral_Library_v2.1.16/XMCLib/src/xmc4_scu.c ****   XMC_SCU_CLOCK_SetCcuClockDivider((uint32_t)config->fccu_clkdiv);
 544:/opt/XMClib/XMC_Peripheral_Library_v2.1.16/XMCLib/src/xmc4_scu.c ****   XMC_SCU_CLOCK_SetPeripheralClockDivider((uint32_t)config->fperipheral_clkdiv);
 545:/opt/XMClib/XMC_Peripheral_Library_v2.1.16/XMCLib/src/xmc4_scu.c **** 
 546:/opt/XMClib/XMC_Peripheral_Library_v2.1.16/XMCLib/src/xmc4_scu.c ****   if (config->enable_oschp == true)
 547:/opt/XMClib/XMC_Peripheral_Library_v2.1.16/XMCLib/src/xmc4_scu.c ****   {
 548:/opt/XMClib/XMC_Peripheral_Library_v2.1.16/XMCLib/src/xmc4_scu.c ****     XMC_SCU_CLOCK_EnableHighPerformanceOscillator();
 549:/opt/XMClib/XMC_Peripheral_Library_v2.1.16/XMCLib/src/xmc4_scu.c ****     while(XMC_SCU_CLOCK_IsHighPerformanceOscillatorStable() == false);
 550:/opt/XMClib/XMC_Peripheral_Library_v2.1.16/XMCLib/src/xmc4_scu.c ****   }
 551:/opt/XMClib/XMC_Peripheral_Library_v2.1.16/XMCLib/src/xmc4_scu.c **** 
 552:/opt/XMClib/XMC_Peripheral_Library_v2.1.16/XMCLib/src/xmc4_scu.c ****   if (config->syspll_config.mode == XMC_SCU_CLOCK_SYSPLL_MODE_DISABLED)
 553:/opt/XMClib/XMC_Peripheral_Library_v2.1.16/XMCLib/src/xmc4_scu.c ****   {
 554:/opt/XMClib/XMC_Peripheral_Library_v2.1.16/XMCLib/src/xmc4_scu.c ****     XMC_SCU_CLOCK_DisableSystemPll();
 555:/opt/XMClib/XMC_Peripheral_Library_v2.1.16/XMCLib/src/xmc4_scu.c ****   }
 556:/opt/XMClib/XMC_Peripheral_Library_v2.1.16/XMCLib/src/xmc4_scu.c ****   else
 557:/opt/XMClib/XMC_Peripheral_Library_v2.1.16/XMCLib/src/xmc4_scu.c ****   {
 558:/opt/XMClib/XMC_Peripheral_Library_v2.1.16/XMCLib/src/xmc4_scu.c **** 
 559:/opt/XMClib/XMC_Peripheral_Library_v2.1.16/XMCLib/src/xmc4_scu.c ****     XMC_SCU_CLOCK_EnableSystemPll();
 560:/opt/XMClib/XMC_Peripheral_Library_v2.1.16/XMCLib/src/xmc4_scu.c ****     XMC_SCU_CLOCK_StartSystemPll(config->syspll_config.clksrc,
 561:/opt/XMClib/XMC_Peripheral_Library_v2.1.16/XMCLib/src/xmc4_scu.c ****                                  config->syspll_config.mode,
 562:/opt/XMClib/XMC_Peripheral_Library_v2.1.16/XMCLib/src/xmc4_scu.c ****                                  (uint32_t)config->syspll_config.p_div,
 563:/opt/XMClib/XMC_Peripheral_Library_v2.1.16/XMCLib/src/xmc4_scu.c ****                                  (uint32_t)config->syspll_config.n_div,
 564:/opt/XMClib/XMC_Peripheral_Library_v2.1.16/XMCLib/src/xmc4_scu.c ****                                  (uint32_t)config->syspll_config.k_div);
 565:/opt/XMClib/XMC_Peripheral_Library_v2.1.16/XMCLib/src/xmc4_scu.c ****   }
 566:/opt/XMClib/XMC_Peripheral_Library_v2.1.16/XMCLib/src/xmc4_scu.c **** 
 567:/opt/XMClib/XMC_Peripheral_Library_v2.1.16/XMCLib/src/xmc4_scu.c ****   /* use SYSPLL? */
 568:/opt/XMClib/XMC_Peripheral_Library_v2.1.16/XMCLib/src/xmc4_scu.c ****   if (config->fsys_clksrc == XMC_SCU_CLOCK_SYSCLKSRC_PLL)
 569:/opt/XMClib/XMC_Peripheral_Library_v2.1.16/XMCLib/src/xmc4_scu.c ****   {
 570:/opt/XMClib/XMC_Peripheral_Library_v2.1.16/XMCLib/src/xmc4_scu.c ****     XMC_SCU_CLOCK_SetSystemClockSource(XMC_SCU_CLOCK_SYSCLKSRC_PLL);    
 571:/opt/XMClib/XMC_Peripheral_Library_v2.1.16/XMCLib/src/xmc4_scu.c ****   }
 572:/opt/XMClib/XMC_Peripheral_Library_v2.1.16/XMCLib/src/xmc4_scu.c ****   SystemCoreClockUpdate();
 573:/opt/XMClib/XMC_Peripheral_Library_v2.1.16/XMCLib/src/xmc4_scu.c **** }
 574:/opt/XMClib/XMC_Peripheral_Library_v2.1.16/XMCLib/src/xmc4_scu.c **** 
 575:/opt/XMClib/XMC_Peripheral_Library_v2.1.16/XMCLib/src/xmc4_scu.c **** /* API to enable a trap source */
 576:/opt/XMClib/XMC_Peripheral_Library_v2.1.16/XMCLib/src/xmc4_scu.c **** void XMC_SCU_TRAP_Enable(const uint32_t trap)
 577:/opt/XMClib/XMC_Peripheral_Library_v2.1.16/XMCLib/src/xmc4_scu.c **** {
 826              		.loc 1 577 1 is_stmt 1 view -0
 827              		.cfi_startproc
 828              		@ args = 0, pretend = 0, frame = 0
 829              		@ frame_needed = 0, uses_anonymous_args = 0
 830              		@ link register save eliminated.
 578:/opt/XMClib/XMC_Peripheral_Library_v2.1.16/XMCLib/src/xmc4_scu.c ****   SCU_TRAP->TRAPDIS &= (uint32_t)~trap;
 831              		.loc 1 578 3 view .LVU164
 832              		.loc 1 578 21 is_stmt 0 view .LVU165
 833 0000 024A     		ldr	r2, .L70
 834 0002 936E     		ldr	r3, [r2, #104]
 835 0004 23EA0000 		bic	r0, r3, r0
 836              	.LVL35:
 837              		.loc 1 578 21 view .LVU166
 838 0008 9066     		str	r0, [r2, #104]
 579:/opt/XMClib/XMC_Peripheral_Library_v2.1.16/XMCLib/src/xmc4_scu.c **** }
 839              		.loc 1 579 1 view .LVU167
 840 000a 7047     		bx	lr
 841              	.L71:
 842              		.align	2
 843              	.L70:
 844 000c 00410050 		.word	1342193920
 845              		.cfi_endproc
 846              	.LFE185:
 848              		.section	.text.XMC_SCU_TRAP_Disable,"ax",%progbits
 849              		.align	1
 850              		.p2align 2,,3
 851              		.global	XMC_SCU_TRAP_Disable
 852              		.syntax unified
 853              		.thumb
 854              		.thumb_func
 855              		.fpu fpv4-sp-d16
 857              	XMC_SCU_TRAP_Disable:
 858              	.LVL36:
 859              	.LFB186:
 580:/opt/XMClib/XMC_Peripheral_Library_v2.1.16/XMCLib/src/xmc4_scu.c **** 
 581:/opt/XMClib/XMC_Peripheral_Library_v2.1.16/XMCLib/src/xmc4_scu.c **** /* API to disable a trap source */
 582:/opt/XMClib/XMC_Peripheral_Library_v2.1.16/XMCLib/src/xmc4_scu.c **** void XMC_SCU_TRAP_Disable(const uint32_t trap)
 583:/opt/XMClib/XMC_Peripheral_Library_v2.1.16/XMCLib/src/xmc4_scu.c **** {
 860              		.loc 1 583 1 is_stmt 1 view -0
 861              		.cfi_startproc
 862              		@ args = 0, pretend = 0, frame = 0
 863              		@ frame_needed = 0, uses_anonymous_args = 0
 864              		@ link register save eliminated.
 584:/opt/XMClib/XMC_Peripheral_Library_v2.1.16/XMCLib/src/xmc4_scu.c ****   SCU_TRAP->TRAPDIS |= (uint32_t)trap;
 865              		.loc 1 584 3 view .LVU169
 866              		.loc 1 584 21 is_stmt 0 view .LVU170
 867 0000 024A     		ldr	r2, .L73
 868 0002 936E     		ldr	r3, [r2, #104]
 869 0004 1843     		orrs	r0, r0, r3
 870              	.LVL37:
 871              		.loc 1 584 21 view .LVU171
 872 0006 9066     		str	r0, [r2, #104]
 585:/opt/XMClib/XMC_Peripheral_Library_v2.1.16/XMCLib/src/xmc4_scu.c **** }
 873              		.loc 1 585 1 view .LVU172
 874 0008 7047     		bx	lr
 875              	.L74:
 876 000a 00BF     		.align	2
 877              	.L73:
 878 000c 00410050 		.word	1342193920
 879              		.cfi_endproc
 880              	.LFE186:
 882              		.section	.text.XMC_SCU_TRAP_GetStatus,"ax",%progbits
 883              		.align	1
 884              		.p2align 2,,3
 885              		.global	XMC_SCU_TRAP_GetStatus
 886              		.syntax unified
 887              		.thumb
 888              		.thumb_func
 889              		.fpu fpv4-sp-d16
 891              	XMC_SCU_TRAP_GetStatus:
 892              	.LFB187:
 586:/opt/XMClib/XMC_Peripheral_Library_v2.1.16/XMCLib/src/xmc4_scu.c **** 
 587:/opt/XMClib/XMC_Peripheral_Library_v2.1.16/XMCLib/src/xmc4_scu.c **** /* API to determine if a trap source has generated event */
 588:/opt/XMClib/XMC_Peripheral_Library_v2.1.16/XMCLib/src/xmc4_scu.c **** uint32_t XMC_SCU_TRAP_GetStatus(void)
 589:/opt/XMClib/XMC_Peripheral_Library_v2.1.16/XMCLib/src/xmc4_scu.c **** {
 893              		.loc 1 589 1 is_stmt 1 view -0
 894              		.cfi_startproc
 895              		@ args = 0, pretend = 0, frame = 0
 896              		@ frame_needed = 0, uses_anonymous_args = 0
 897              		@ link register save eliminated.
 590:/opt/XMClib/XMC_Peripheral_Library_v2.1.16/XMCLib/src/xmc4_scu.c ****   return (SCU_TRAP->TRAPRAW);
 898              		.loc 1 590 3 view .LVU174
 899              		.loc 1 590 19 is_stmt 0 view .LVU175
 900 0000 014B     		ldr	r3, .L76
 901 0002 586E     		ldr	r0, [r3, #100]
 591:/opt/XMClib/XMC_Peripheral_Library_v2.1.16/XMCLib/src/xmc4_scu.c **** }
 902              		.loc 1 591 1 view .LVU176
 903 0004 7047     		bx	lr
 904              	.L77:
 905 0006 00BF     		.align	2
 906              	.L76:
 907 0008 00410050 		.word	1342193920
 908              		.cfi_endproc
 909              	.LFE187:
 911              		.section	.text.XMC_SCU_TRAP_Trigger,"ax",%progbits
 912              		.align	1
 913              		.p2align 2,,3
 914              		.global	XMC_SCU_TRAP_Trigger
 915              		.syntax unified
 916              		.thumb
 917              		.thumb_func
 918              		.fpu fpv4-sp-d16
 920              	XMC_SCU_TRAP_Trigger:
 921              	.LVL38:
 922              	.LFB188:
 592:/opt/XMClib/XMC_Peripheral_Library_v2.1.16/XMCLib/src/xmc4_scu.c **** 
 593:/opt/XMClib/XMC_Peripheral_Library_v2.1.16/XMCLib/src/xmc4_scu.c **** /* API to manually trigger a trap event */
 594:/opt/XMClib/XMC_Peripheral_Library_v2.1.16/XMCLib/src/xmc4_scu.c **** void XMC_SCU_TRAP_Trigger(const uint32_t trap)
 595:/opt/XMClib/XMC_Peripheral_Library_v2.1.16/XMCLib/src/xmc4_scu.c **** {
 923              		.loc 1 595 1 is_stmt 1 view -0
 924              		.cfi_startproc
 925              		@ args = 0, pretend = 0, frame = 0
 926              		@ frame_needed = 0, uses_anonymous_args = 0
 927              		@ link register save eliminated.
 596:/opt/XMClib/XMC_Peripheral_Library_v2.1.16/XMCLib/src/xmc4_scu.c ****   SCU_TRAP->TRAPSET = (uint32_t)trap;
 928              		.loc 1 596 3 view .LVU178
 929              		.loc 1 596 21 is_stmt 0 view .LVU179
 930 0000 014B     		ldr	r3, .L79
 931 0002 1867     		str	r0, [r3, #112]
 597:/opt/XMClib/XMC_Peripheral_Library_v2.1.16/XMCLib/src/xmc4_scu.c **** }
 932              		.loc 1 597 1 view .LVU180
 933 0004 7047     		bx	lr
 934              	.L80:
 935 0006 00BF     		.align	2
 936              	.L79:
 937 0008 00410050 		.word	1342193920
 938              		.cfi_endproc
 939              	.LFE188:
 941              		.section	.text.XMC_SCU_TRAP_ClearStatus,"ax",%progbits
 942              		.align	1
 943              		.p2align 2,,3
 944              		.global	XMC_SCU_TRAP_ClearStatus
 945              		.syntax unified
 946              		.thumb
 947              		.thumb_func
 948              		.fpu fpv4-sp-d16
 950              	XMC_SCU_TRAP_ClearStatus:
 951              	.LVL39:
 952              	.LFB189:
 598:/opt/XMClib/XMC_Peripheral_Library_v2.1.16/XMCLib/src/xmc4_scu.c **** 
 599:/opt/XMClib/XMC_Peripheral_Library_v2.1.16/XMCLib/src/xmc4_scu.c **** /* API to clear a trap event */
 600:/opt/XMClib/XMC_Peripheral_Library_v2.1.16/XMCLib/src/xmc4_scu.c **** void XMC_SCU_TRAP_ClearStatus(const uint32_t trap)
 601:/opt/XMClib/XMC_Peripheral_Library_v2.1.16/XMCLib/src/xmc4_scu.c **** {
 953              		.loc 1 601 1 is_stmt 1 view -0
 954              		.cfi_startproc
 955              		@ args = 0, pretend = 0, frame = 0
 956              		@ frame_needed = 0, uses_anonymous_args = 0
 957              		@ link register save eliminated.
 602:/opt/XMClib/XMC_Peripheral_Library_v2.1.16/XMCLib/src/xmc4_scu.c ****   SCU_TRAP->TRAPCLR = (uint32_t)trap;
 958              		.loc 1 602 3 view .LVU182
 959              		.loc 1 602 21 is_stmt 0 view .LVU183
 960 0000 014B     		ldr	r3, .L82
 961 0002 D866     		str	r0, [r3, #108]
 603:/opt/XMClib/XMC_Peripheral_Library_v2.1.16/XMCLib/src/xmc4_scu.c **** }
 962              		.loc 1 603 1 view .LVU184
 963 0004 7047     		bx	lr
 964              	.L83:
 965 0006 00BF     		.align	2
 966              	.L82:
 967 0008 00410050 		.word	1342193920
 968              		.cfi_endproc
 969              	.LFE189:
 971              		.section	.text.XMC_SCU_PARITY_ClearStatus,"ax",%progbits
 972              		.align	1
 973              		.p2align 2,,3
 974              		.global	XMC_SCU_PARITY_ClearStatus
 975              		.syntax unified
 976              		.thumb
 977              		.thumb_func
 978              		.fpu fpv4-sp-d16
 980              	XMC_SCU_PARITY_ClearStatus:
 981              	.LVL40:
 982              	.LFB190:
 604:/opt/XMClib/XMC_Peripheral_Library_v2.1.16/XMCLib/src/xmc4_scu.c **** 
 605:/opt/XMClib/XMC_Peripheral_Library_v2.1.16/XMCLib/src/xmc4_scu.c **** /* API to clear parity error event */
 606:/opt/XMClib/XMC_Peripheral_Library_v2.1.16/XMCLib/src/xmc4_scu.c **** void XMC_SCU_PARITY_ClearStatus(const uint32_t memory)
 607:/opt/XMClib/XMC_Peripheral_Library_v2.1.16/XMCLib/src/xmc4_scu.c **** {
 983              		.loc 1 607 1 is_stmt 1 view -0
 984              		.cfi_startproc
 985              		@ args = 0, pretend = 0, frame = 0
 986              		@ frame_needed = 0, uses_anonymous_args = 0
 987              		@ link register save eliminated.
 608:/opt/XMClib/XMC_Peripheral_Library_v2.1.16/XMCLib/src/xmc4_scu.c ****   SCU_PARITY->PEFLAG |= (uint32_t)memory; 
 988              		.loc 1 608 3 view .LVU186
 989              		.loc 1 608 22 is_stmt 0 view .LVU187
 990 0000 024A     		ldr	r2, .L85
 991 0002 136D     		ldr	r3, [r2, #80]
 992 0004 1843     		orrs	r0, r0, r3
 993              	.LVL41:
 994              		.loc 1 608 22 view .LVU188
 995 0006 1065     		str	r0, [r2, #80]
 609:/opt/XMClib/XMC_Peripheral_Library_v2.1.16/XMCLib/src/xmc4_scu.c **** }
 996              		.loc 1 609 1 view .LVU189
 997 0008 7047     		bx	lr
 998              	.L86:
 999 000a 00BF     		.align	2
 1000              	.L85:
 1001 000c 00410050 		.word	1342193920
 1002              		.cfi_endproc
 1003              	.LFE190:
 1005              		.section	.text.XMC_SCU_PARITY_GetStatus,"ax",%progbits
 1006              		.align	1
 1007              		.p2align 2,,3
 1008              		.global	XMC_SCU_PARITY_GetStatus
 1009              		.syntax unified
 1010              		.thumb
 1011              		.thumb_func
 1012              		.fpu fpv4-sp-d16
 1014              	XMC_SCU_PARITY_GetStatus:
 1015              	.LFB191:
 610:/opt/XMClib/XMC_Peripheral_Library_v2.1.16/XMCLib/src/xmc4_scu.c **** 
 611:/opt/XMClib/XMC_Peripheral_Library_v2.1.16/XMCLib/src/xmc4_scu.c **** /* API to determine if the specified parity error has occured or not */
 612:/opt/XMClib/XMC_Peripheral_Library_v2.1.16/XMCLib/src/xmc4_scu.c **** uint32_t XMC_SCU_PARITY_GetStatus(void)
 613:/opt/XMClib/XMC_Peripheral_Library_v2.1.16/XMCLib/src/xmc4_scu.c **** {
 1016              		.loc 1 613 1 is_stmt 1 view -0
 1017              		.cfi_startproc
 1018              		@ args = 0, pretend = 0, frame = 0
 1019              		@ frame_needed = 0, uses_anonymous_args = 0
 1020              		@ link register save eliminated.
 614:/opt/XMClib/XMC_Peripheral_Library_v2.1.16/XMCLib/src/xmc4_scu.c ****   return (SCU_PARITY->PEFLAG);
 1021              		.loc 1 614 3 view .LVU191
 1022              		.loc 1 614 21 is_stmt 0 view .LVU192
 1023 0000 014B     		ldr	r3, .L88
 1024 0002 186D     		ldr	r0, [r3, #80]
 615:/opt/XMClib/XMC_Peripheral_Library_v2.1.16/XMCLib/src/xmc4_scu.c **** } 
 1025              		.loc 1 615 1 view .LVU193
 1026 0004 7047     		bx	lr
 1027              	.L89:
 1028 0006 00BF     		.align	2
 1029              	.L88:
 1030 0008 00410050 		.word	1342193920
 1031              		.cfi_endproc
 1032              	.LFE191:
 1034              		.section	.text.XMC_SCU_PARITY_Enable,"ax",%progbits
 1035              		.align	1
 1036              		.p2align 2,,3
 1037              		.global	XMC_SCU_PARITY_Enable
 1038              		.syntax unified
 1039              		.thumb
 1040              		.thumb_func
 1041              		.fpu fpv4-sp-d16
 1043              	XMC_SCU_PARITY_Enable:
 1044              	.LVL42:
 1045              	.LFB192:
 616:/opt/XMClib/XMC_Peripheral_Library_v2.1.16/XMCLib/src/xmc4_scu.c **** 
 617:/opt/XMClib/XMC_Peripheral_Library_v2.1.16/XMCLib/src/xmc4_scu.c **** /* API to enable parity error checking for the selected on-chip RAM type */
 618:/opt/XMClib/XMC_Peripheral_Library_v2.1.16/XMCLib/src/xmc4_scu.c **** void XMC_SCU_PARITY_Enable(const uint32_t memory)
 619:/opt/XMClib/XMC_Peripheral_Library_v2.1.16/XMCLib/src/xmc4_scu.c **** {
 1046              		.loc 1 619 1 is_stmt 1 view -0
 1047              		.cfi_startproc
 1048              		@ args = 0, pretend = 0, frame = 0
 1049              		@ frame_needed = 0, uses_anonymous_args = 0
 1050              		@ link register save eliminated.
 620:/opt/XMClib/XMC_Peripheral_Library_v2.1.16/XMCLib/src/xmc4_scu.c ****   SCU_PARITY->PEEN |= (uint32_t)memory; 
 1051              		.loc 1 620 3 view .LVU195
 1052              		.loc 1 620 20 is_stmt 0 view .LVU196
 1053 0000 024A     		ldr	r2, .L91
 1054 0002 D36B     		ldr	r3, [r2, #60]
 1055 0004 1843     		orrs	r0, r0, r3
 1056              	.LVL43:
 1057              		.loc 1 620 20 view .LVU197
 1058 0006 D063     		str	r0, [r2, #60]
 621:/opt/XMClib/XMC_Peripheral_Library_v2.1.16/XMCLib/src/xmc4_scu.c **** }
 1059              		.loc 1 621 1 view .LVU198
 1060 0008 7047     		bx	lr
 1061              	.L92:
 1062 000a 00BF     		.align	2
 1063              	.L91:
 1064 000c 00410050 		.word	1342193920
 1065              		.cfi_endproc
 1066              	.LFE192:
 1068              		.section	.text.XMC_SCU_PARITY_Disable,"ax",%progbits
 1069              		.align	1
 1070              		.p2align 2,,3
 1071              		.global	XMC_SCU_PARITY_Disable
 1072              		.syntax unified
 1073              		.thumb
 1074              		.thumb_func
 1075              		.fpu fpv4-sp-d16
 1077              	XMC_SCU_PARITY_Disable:
 1078              	.LVL44:
 1079              	.LFB193:
 622:/opt/XMClib/XMC_Peripheral_Library_v2.1.16/XMCLib/src/xmc4_scu.c **** 
 623:/opt/XMClib/XMC_Peripheral_Library_v2.1.16/XMCLib/src/xmc4_scu.c **** /* API to disable parity error checking for the selected on-chip RAM type */
 624:/opt/XMClib/XMC_Peripheral_Library_v2.1.16/XMCLib/src/xmc4_scu.c **** void XMC_SCU_PARITY_Disable(const uint32_t memory)
 625:/opt/XMClib/XMC_Peripheral_Library_v2.1.16/XMCLib/src/xmc4_scu.c **** {
 1080              		.loc 1 625 1 is_stmt 1 view -0
 1081              		.cfi_startproc
 1082              		@ args = 0, pretend = 0, frame = 0
 1083              		@ frame_needed = 0, uses_anonymous_args = 0
 1084              		@ link register save eliminated.
 626:/opt/XMClib/XMC_Peripheral_Library_v2.1.16/XMCLib/src/xmc4_scu.c ****   SCU_PARITY->PEEN &= (uint32_t)~memory; 
 1085              		.loc 1 626 3 view .LVU200
 1086              		.loc 1 626 20 is_stmt 0 view .LVU201
 1087 0000 024A     		ldr	r2, .L94
 1088 0002 D36B     		ldr	r3, [r2, #60]
 1089 0004 23EA0000 		bic	r0, r3, r0
 1090              	.LVL45:
 1091              		.loc 1 626 20 view .LVU202
 1092 0008 D063     		str	r0, [r2, #60]
 627:/opt/XMClib/XMC_Peripheral_Library_v2.1.16/XMCLib/src/xmc4_scu.c **** }
 1093              		.loc 1 627 1 view .LVU203
 1094 000a 7047     		bx	lr
 1095              	.L95:
 1096              		.align	2
 1097              	.L94:
 1098 000c 00410050 		.word	1342193920
 1099              		.cfi_endproc
 1100              	.LFE193:
 1102              		.section	.text.XMC_SCU_PARITY_EnableTrapGeneration,"ax",%progbits
 1103              		.align	1
 1104              		.p2align 2,,3
 1105              		.global	XMC_SCU_PARITY_EnableTrapGeneration
 1106              		.syntax unified
 1107              		.thumb
 1108              		.thumb_func
 1109              		.fpu fpv4-sp-d16
 1111              	XMC_SCU_PARITY_EnableTrapGeneration:
 1112              	.LVL46:
 1113              	.LFB194:
 628:/opt/XMClib/XMC_Peripheral_Library_v2.1.16/XMCLib/src/xmc4_scu.c **** 
 629:/opt/XMClib/XMC_Peripheral_Library_v2.1.16/XMCLib/src/xmc4_scu.c **** /* API to enable trap assertion for the parity error source */
 630:/opt/XMClib/XMC_Peripheral_Library_v2.1.16/XMCLib/src/xmc4_scu.c **** void XMC_SCU_PARITY_EnableTrapGeneration(const uint32_t memory)
 631:/opt/XMClib/XMC_Peripheral_Library_v2.1.16/XMCLib/src/xmc4_scu.c **** {
 1114              		.loc 1 631 1 is_stmt 1 view -0
 1115              		.cfi_startproc
 1116              		@ args = 0, pretend = 0, frame = 0
 1117              		@ frame_needed = 0, uses_anonymous_args = 0
 1118              		@ link register save eliminated.
 632:/opt/XMClib/XMC_Peripheral_Library_v2.1.16/XMCLib/src/xmc4_scu.c ****   SCU_PARITY->PETE |= (uint32_t)memory; 
 1119              		.loc 1 632 3 view .LVU205
 1120              		.loc 1 632 20 is_stmt 0 view .LVU206
 1121 0000 024A     		ldr	r2, .L97
 1122 0002 536C     		ldr	r3, [r2, #68]
 1123 0004 1843     		orrs	r0, r0, r3
 1124              	.LVL47:
 1125              		.loc 1 632 20 view .LVU207
 1126 0006 5064     		str	r0, [r2, #68]
 633:/opt/XMClib/XMC_Peripheral_Library_v2.1.16/XMCLib/src/xmc4_scu.c **** }
 1127              		.loc 1 633 1 view .LVU208
 1128 0008 7047     		bx	lr
 1129              	.L98:
 1130 000a 00BF     		.align	2
 1131              	.L97:
 1132 000c 00410050 		.word	1342193920
 1133              		.cfi_endproc
 1134              	.LFE194:
 1136              		.section	.text.XMC_SCU_PARITY_DisableTrapGeneration,"ax",%progbits
 1137              		.align	1
 1138              		.p2align 2,,3
 1139              		.global	XMC_SCU_PARITY_DisableTrapGeneration
 1140              		.syntax unified
 1141              		.thumb
 1142              		.thumb_func
 1143              		.fpu fpv4-sp-d16
 1145              	XMC_SCU_PARITY_DisableTrapGeneration:
 1146              	.LVL48:
 1147              	.LFB195:
 634:/opt/XMClib/XMC_Peripheral_Library_v2.1.16/XMCLib/src/xmc4_scu.c **** 
 635:/opt/XMClib/XMC_Peripheral_Library_v2.1.16/XMCLib/src/xmc4_scu.c **** /* API to disable the assertion of trap for the parity error source */
 636:/opt/XMClib/XMC_Peripheral_Library_v2.1.16/XMCLib/src/xmc4_scu.c **** void XMC_SCU_PARITY_DisableTrapGeneration(const uint32_t memory)
 637:/opt/XMClib/XMC_Peripheral_Library_v2.1.16/XMCLib/src/xmc4_scu.c **** {
 1148              		.loc 1 637 1 is_stmt 1 view -0
 1149              		.cfi_startproc
 1150              		@ args = 0, pretend = 0, frame = 0
 1151              		@ frame_needed = 0, uses_anonymous_args = 0
 1152              		@ link register save eliminated.
 638:/opt/XMClib/XMC_Peripheral_Library_v2.1.16/XMCLib/src/xmc4_scu.c ****   SCU_PARITY->PETE &= (uint32_t)~memory; 
 1153              		.loc 1 638 3 view .LVU210
 1154              		.loc 1 638 20 is_stmt 0 view .LVU211
 1155 0000 024A     		ldr	r2, .L100
 1156 0002 536C     		ldr	r3, [r2, #68]
 1157 0004 23EA0000 		bic	r0, r3, r0
 1158              	.LVL49:
 1159              		.loc 1 638 20 view .LVU212
 1160 0008 5064     		str	r0, [r2, #68]
 639:/opt/XMClib/XMC_Peripheral_Library_v2.1.16/XMCLib/src/xmc4_scu.c **** }
 1161              		.loc 1 639 1 view .LVU213
 1162 000a 7047     		bx	lr
 1163              	.L101:
 1164              		.align	2
 1165              	.L100:
 1166 000c 00410050 		.word	1342193920
 1167              		.cfi_endproc
 1168              	.LFE195:
 1170              		.section	.text.XMC_SCU_INTERRUPT_EnableNmiRequest,"ax",%progbits
 1171              		.align	1
 1172              		.p2align 2,,3
 1173              		.global	XMC_SCU_INTERRUPT_EnableNmiRequest
 1174              		.syntax unified
 1175              		.thumb
 1176              		.thumb_func
 1177              		.fpu fpv4-sp-d16
 1179              	XMC_SCU_INTERRUPT_EnableNmiRequest:
 1180              	.LVL50:
 1181              	.LFB196:
 640:/opt/XMClib/XMC_Peripheral_Library_v2.1.16/XMCLib/src/xmc4_scu.c **** 
 641:/opt/XMClib/XMC_Peripheral_Library_v2.1.16/XMCLib/src/xmc4_scu.c **** /* Enables a NMI source */
 642:/opt/XMClib/XMC_Peripheral_Library_v2.1.16/XMCLib/src/xmc4_scu.c **** void XMC_SCU_INTERRUPT_EnableNmiRequest(const uint32_t request)
 643:/opt/XMClib/XMC_Peripheral_Library_v2.1.16/XMCLib/src/xmc4_scu.c **** {
 1182              		.loc 1 643 1 is_stmt 1 view -0
 1183              		.cfi_startproc
 1184              		@ args = 0, pretend = 0, frame = 0
 1185              		@ frame_needed = 0, uses_anonymous_args = 0
 1186              		@ link register save eliminated.
 644:/opt/XMClib/XMC_Peripheral_Library_v2.1.16/XMCLib/src/xmc4_scu.c ****   SCU_INTERRUPT->NMIREQEN |= (uint32_t)request;
 1187              		.loc 1 644 3 view .LVU215
 1188              		.loc 1 644 27 is_stmt 0 view .LVU216
 1189 0000 034A     		ldr	r2, .L103
 1190 0002 D2F88830 		ldr	r3, [r2, #136]
 1191 0006 1843     		orrs	r0, r0, r3
 1192              	.LVL51:
 1193              		.loc 1 644 27 view .LVU217
 1194 0008 C2F88800 		str	r0, [r2, #136]
 645:/opt/XMClib/XMC_Peripheral_Library_v2.1.16/XMCLib/src/xmc4_scu.c **** }
 1195              		.loc 1 645 1 view .LVU218
 1196 000c 7047     		bx	lr
 1197              	.L104:
 1198 000e 00BF     		.align	2
 1199              	.L103:
 1200 0010 00400050 		.word	1342193664
 1201              		.cfi_endproc
 1202              	.LFE196:
 1204              		.section	.text.XMC_SCU_INTERRUPT_DisableNmiRequest,"ax",%progbits
 1205              		.align	1
 1206              		.p2align 2,,3
 1207              		.global	XMC_SCU_INTERRUPT_DisableNmiRequest
 1208              		.syntax unified
 1209              		.thumb
 1210              		.thumb_func
 1211              		.fpu fpv4-sp-d16
 1213              	XMC_SCU_INTERRUPT_DisableNmiRequest:
 1214              	.LVL52:
 1215              	.LFB197:
 646:/opt/XMClib/XMC_Peripheral_Library_v2.1.16/XMCLib/src/xmc4_scu.c **** 
 647:/opt/XMClib/XMC_Peripheral_Library_v2.1.16/XMCLib/src/xmc4_scu.c **** /* Disables a NMI source */
 648:/opt/XMClib/XMC_Peripheral_Library_v2.1.16/XMCLib/src/xmc4_scu.c **** void XMC_SCU_INTERRUPT_DisableNmiRequest(const uint32_t request)
 649:/opt/XMClib/XMC_Peripheral_Library_v2.1.16/XMCLib/src/xmc4_scu.c **** {
 1216              		.loc 1 649 1 is_stmt 1 view -0
 1217              		.cfi_startproc
 1218              		@ args = 0, pretend = 0, frame = 0
 1219              		@ frame_needed = 0, uses_anonymous_args = 0
 1220              		@ link register save eliminated.
 650:/opt/XMClib/XMC_Peripheral_Library_v2.1.16/XMCLib/src/xmc4_scu.c ****   SCU_INTERRUPT->NMIREQEN &= (uint32_t)~request;
 1221              		.loc 1 650 3 view .LVU220
 1222              		.loc 1 650 27 is_stmt 0 view .LVU221
 1223 0000 034A     		ldr	r2, .L106
 1224 0002 D2F88830 		ldr	r3, [r2, #136]
 1225 0006 23EA0000 		bic	r0, r3, r0
 1226              	.LVL53:
 1227              		.loc 1 650 27 view .LVU222
 1228 000a C2F88800 		str	r0, [r2, #136]
 651:/opt/XMClib/XMC_Peripheral_Library_v2.1.16/XMCLib/src/xmc4_scu.c **** }
 1229              		.loc 1 651 1 view .LVU223
 1230 000e 7047     		bx	lr
 1231              	.L107:
 1232              		.align	2
 1233              	.L106:
 1234 0010 00400050 		.word	1342193664
 1235              		.cfi_endproc
 1236              	.LFE197:
 1238              		.section	.text.XMC_SCU_RESET_AssertPeripheralReset,"ax",%progbits
 1239              		.align	1
 1240              		.p2align 2,,3
 1241              		.global	XMC_SCU_RESET_AssertPeripheralReset
 1242              		.syntax unified
 1243              		.thumb
 1244              		.thumb_func
 1245              		.fpu fpv4-sp-d16
 1247              	XMC_SCU_RESET_AssertPeripheralReset:
 1248              	.LVL54:
 1249              	.LFB198:
 652:/opt/XMClib/XMC_Peripheral_Library_v2.1.16/XMCLib/src/xmc4_scu.c **** 
 653:/opt/XMClib/XMC_Peripheral_Library_v2.1.16/XMCLib/src/xmc4_scu.c **** /* API to manually assert a reset request */
 654:/opt/XMClib/XMC_Peripheral_Library_v2.1.16/XMCLib/src/xmc4_scu.c **** void XMC_SCU_RESET_AssertPeripheralReset(const XMC_SCU_PERIPHERAL_RESET_t peripheral)
 655:/opt/XMClib/XMC_Peripheral_Library_v2.1.16/XMCLib/src/xmc4_scu.c **** {
 1250              		.loc 1 655 1 is_stmt 1 view -0
 1251              		.cfi_startproc
 1252              		@ args = 0, pretend = 0, frame = 0
 1253              		@ frame_needed = 0, uses_anonymous_args = 0
 1254              		@ link register save eliminated.
 656:/opt/XMClib/XMC_Peripheral_Library_v2.1.16/XMCLib/src/xmc4_scu.c ****   uint32_t index = (uint32_t)((((uint32_t)peripheral) & 0xf0000000UL) >> 28UL);
 1255              		.loc 1 656 3 view .LVU225
 657:/opt/XMClib/XMC_Peripheral_Library_v2.1.16/XMCLib/src/xmc4_scu.c ****   uint32_t mask = (((uint32_t)peripheral) & ((uint32_t)~0xf0000000UL));
 1256              		.loc 1 657 3 view .LVU226
 658:/opt/XMClib/XMC_Peripheral_Library_v2.1.16/XMCLib/src/xmc4_scu.c **** 
 659:/opt/XMClib/XMC_Peripheral_Library_v2.1.16/XMCLib/src/xmc4_scu.c ****   *(uint32_t *)(&(SCU_RESET->PRSET0) + (index * 3U)) = (uint32_t)mask;
 1257              		.loc 1 659 3 view .LVU227
 656:/opt/XMClib/XMC_Peripheral_Library_v2.1.16/XMCLib/src/xmc4_scu.c ****   uint32_t mask = (((uint32_t)peripheral) & ((uint32_t)~0xf0000000UL));
 1258              		.loc 1 656 12 is_stmt 0 view .LVU228
 1259 0000 030F     		lsrs	r3, r0, #28
 1260              	.LVL55:
 1261              		.loc 1 659 54 view .LVU229
 1262 0002 044A     		ldr	r2, .L109
 1263 0004 03EB4303 		add	r3, r3, r3, lsl #1
 1264              	.LVL56:
 657:/opt/XMClib/XMC_Peripheral_Library_v2.1.16/XMCLib/src/xmc4_scu.c ****   uint32_t mask = (((uint32_t)peripheral) & ((uint32_t)~0xf0000000UL));
 1265              		.loc 1 657 12 view .LVU230
 1266 0008 20F07040 		bic	r0, r0, #-268435456
 1267              	.LVL57:
 1268              		.loc 1 659 54 view .LVU231
 1269 000c 42F82300 		str	r0, [r2, r3, lsl #2]
 660:/opt/XMClib/XMC_Peripheral_Library_v2.1.16/XMCLib/src/xmc4_scu.c **** }
 1270              		.loc 1 660 1 view .LVU232
 1271 0010 7047     		bx	lr
 1272              	.L110:
 1273 0012 00BF     		.align	2
 1274              	.L109:
 1275 0014 10440050 		.word	1342194704
 1276              		.cfi_endproc
 1277              	.LFE198:
 1279              		.section	.text.XMC_SCU_RESET_DeassertPeripheralReset,"ax",%progbits
 1280              		.align	1
 1281              		.p2align 2,,3
 1282              		.global	XMC_SCU_RESET_DeassertPeripheralReset
 1283              		.syntax unified
 1284              		.thumb
 1285              		.thumb_func
 1286              		.fpu fpv4-sp-d16
 1288              	XMC_SCU_RESET_DeassertPeripheralReset:
 1289              	.LVL58:
 1290              	.LFB199:
 661:/opt/XMClib/XMC_Peripheral_Library_v2.1.16/XMCLib/src/xmc4_scu.c **** 
 662:/opt/XMClib/XMC_Peripheral_Library_v2.1.16/XMCLib/src/xmc4_scu.c **** /* API to manually de-assert a reset request */
 663:/opt/XMClib/XMC_Peripheral_Library_v2.1.16/XMCLib/src/xmc4_scu.c **** void XMC_SCU_RESET_DeassertPeripheralReset(const XMC_SCU_PERIPHERAL_RESET_t peripheral)
 664:/opt/XMClib/XMC_Peripheral_Library_v2.1.16/XMCLib/src/xmc4_scu.c **** {
 1291              		.loc 1 664 1 is_stmt 1 view -0
 1292              		.cfi_startproc
 1293              		@ args = 0, pretend = 0, frame = 0
 1294              		@ frame_needed = 0, uses_anonymous_args = 0
 1295              		@ link register save eliminated.
 665:/opt/XMClib/XMC_Peripheral_Library_v2.1.16/XMCLib/src/xmc4_scu.c ****   uint32_t index = (uint32_t)((((uint32_t)peripheral) & 0xf0000000UL) >> 28UL);
 1296              		.loc 1 665 3 view .LVU234
 666:/opt/XMClib/XMC_Peripheral_Library_v2.1.16/XMCLib/src/xmc4_scu.c ****   uint32_t mask = (((uint32_t)peripheral) & ((uint32_t)~0xf0000000UL));
 1297              		.loc 1 666 3 view .LVU235
 667:/opt/XMClib/XMC_Peripheral_Library_v2.1.16/XMCLib/src/xmc4_scu.c **** 
 668:/opt/XMClib/XMC_Peripheral_Library_v2.1.16/XMCLib/src/xmc4_scu.c ****   *(uint32_t *)(&(SCU_RESET->PRCLR0) + (index * 3U)) = (uint32_t)mask;
 1298              		.loc 1 668 3 view .LVU236
 665:/opt/XMClib/XMC_Peripheral_Library_v2.1.16/XMCLib/src/xmc4_scu.c ****   uint32_t mask = (((uint32_t)peripheral) & ((uint32_t)~0xf0000000UL));
 1299              		.loc 1 665 12 is_stmt 0 view .LVU237
 1300 0000 030F     		lsrs	r3, r0, #28
 1301              	.LVL59:
 1302              		.loc 1 668 54 view .LVU238
 1303 0002 044A     		ldr	r2, .L112
 1304 0004 03EB4303 		add	r3, r3, r3, lsl #1
 1305              	.LVL60:
 666:/opt/XMClib/XMC_Peripheral_Library_v2.1.16/XMCLib/src/xmc4_scu.c ****   uint32_t mask = (((uint32_t)peripheral) & ((uint32_t)~0xf0000000UL));
 1306              		.loc 1 666 12 view .LVU239
 1307 0008 20F07040 		bic	r0, r0, #-268435456
 1308              	.LVL61:
 1309              		.loc 1 668 54 view .LVU240
 1310 000c 42F82300 		str	r0, [r2, r3, lsl #2]
 669:/opt/XMClib/XMC_Peripheral_Library_v2.1.16/XMCLib/src/xmc4_scu.c **** }
 1311              		.loc 1 669 1 view .LVU241
 1312 0010 7047     		bx	lr
 1313              	.L113:
 1314 0012 00BF     		.align	2
 1315              	.L112:
 1316 0014 14440050 		.word	1342194708
 1317              		.cfi_endproc
 1318              	.LFE199:
 1320              		.section	.text.XMC_SCU_RESET_IsPeripheralResetAsserted,"ax",%progbits
 1321              		.align	1
 1322              		.p2align 2,,3
 1323              		.global	XMC_SCU_RESET_IsPeripheralResetAsserted
 1324              		.syntax unified
 1325              		.thumb
 1326              		.thumb_func
 1327              		.fpu fpv4-sp-d16
 1329              	XMC_SCU_RESET_IsPeripheralResetAsserted:
 1330              	.LVL62:
 1331              	.LFB200:
 670:/opt/XMClib/XMC_Peripheral_Library_v2.1.16/XMCLib/src/xmc4_scu.c **** 
 671:/opt/XMClib/XMC_Peripheral_Library_v2.1.16/XMCLib/src/xmc4_scu.c **** /* Find out if the peripheral reset is asserted */
 672:/opt/XMClib/XMC_Peripheral_Library_v2.1.16/XMCLib/src/xmc4_scu.c **** bool XMC_SCU_RESET_IsPeripheralResetAsserted(const XMC_SCU_PERIPHERAL_RESET_t peripheral)
 673:/opt/XMClib/XMC_Peripheral_Library_v2.1.16/XMCLib/src/xmc4_scu.c **** {
 1332              		.loc 1 673 1 is_stmt 1 view -0
 1333              		.cfi_startproc
 1334              		@ args = 0, pretend = 0, frame = 0
 1335              		@ frame_needed = 0, uses_anonymous_args = 0
 1336              		@ link register save eliminated.
 674:/opt/XMClib/XMC_Peripheral_Library_v2.1.16/XMCLib/src/xmc4_scu.c ****   uint32_t index = (uint32_t)((((uint32_t)peripheral) & 0xf0000000UL) >> 28UL);
 1337              		.loc 1 674 3 view .LVU243
 675:/opt/XMClib/XMC_Peripheral_Library_v2.1.16/XMCLib/src/xmc4_scu.c ****   uint32_t mask = (((uint32_t)peripheral) & ((uint32_t)~0xf0000000UL));
 1338              		.loc 1 675 3 view .LVU244
 676:/opt/XMClib/XMC_Peripheral_Library_v2.1.16/XMCLib/src/xmc4_scu.c **** 
 677:/opt/XMClib/XMC_Peripheral_Library_v2.1.16/XMCLib/src/xmc4_scu.c ****   return ((*(uint32_t *)(&(SCU_RESET->PRSTAT0) + (index * 3U)) & mask) != 0U);
 1339              		.loc 1 677 3 view .LVU245
 674:/opt/XMClib/XMC_Peripheral_Library_v2.1.16/XMCLib/src/xmc4_scu.c ****   uint32_t mask = (((uint32_t)peripheral) & ((uint32_t)~0xf0000000UL));
 1340              		.loc 1 674 12 is_stmt 0 view .LVU246
 1341 0000 030F     		lsrs	r3, r0, #28
 1342              	.LVL63:
 1343              		.loc 1 677 12 view .LVU247
 1344 0002 064A     		ldr	r2, .L115
 1345 0004 03EB4303 		add	r3, r3, r3, lsl #1
 1346              	.LVL64:
 1347              		.loc 1 677 64 view .LVU248
 1348 0008 52F82330 		ldr	r3, [r2, r3, lsl #2]
 1349 000c 1840     		ands	r0, r0, r3
 1350              	.LVL65:
 1351              		.loc 1 677 72 view .LVU249
 1352 000e 30F07043 		bics	r3, r0, #-268435456
 678:/opt/XMClib/XMC_Peripheral_Library_v2.1.16/XMCLib/src/xmc4_scu.c **** }
 1353              		.loc 1 678 1 view .LVU250
 1354 0012 14BF     		ite	ne
 1355 0014 0120     		movne	r0, #1
 1356 0016 0020     		moveq	r0, #0
 1357 0018 7047     		bx	lr
 1358              	.L116:
 1359 001a 00BF     		.align	2
 1360              	.L115:
 1361 001c 0C440050 		.word	1342194700
 1362              		.cfi_endproc
 1363              	.LFE200:
 1365              		.section	.text.XMC_SCU_CLOCK_GetSystemPllClockFrequency,"ax",%progbits
 1366              		.align	1
 1367              		.p2align 2,,3
 1368              		.global	XMC_SCU_CLOCK_GetSystemPllClockFrequency
 1369              		.syntax unified
 1370              		.thumb
 1371              		.thumb_func
 1372              		.fpu fpv4-sp-d16
 1374              	XMC_SCU_CLOCK_GetSystemPllClockFrequency:
 1375              	.LFB201:
 679:/opt/XMClib/XMC_Peripheral_Library_v2.1.16/XMCLib/src/xmc4_scu.c **** 
 680:/opt/XMClib/XMC_Peripheral_Library_v2.1.16/XMCLib/src/xmc4_scu.c **** /*
 681:/opt/XMClib/XMC_Peripheral_Library_v2.1.16/XMCLib/src/xmc4_scu.c ****  * API to retrieve frequency of System PLL output clock
 682:/opt/XMClib/XMC_Peripheral_Library_v2.1.16/XMCLib/src/xmc4_scu.c ****  */
 683:/opt/XMClib/XMC_Peripheral_Library_v2.1.16/XMCLib/src/xmc4_scu.c **** uint32_t XMC_SCU_CLOCK_GetSystemPllClockFrequency(void)
 684:/opt/XMClib/XMC_Peripheral_Library_v2.1.16/XMCLib/src/xmc4_scu.c **** {
 1376              		.loc 1 684 1 is_stmt 1 view -0
 1377              		.cfi_startproc
 1378              		@ args = 0, pretend = 0, frame = 0
 1379              		@ frame_needed = 0, uses_anonymous_args = 0
 685:/opt/XMClib/XMC_Peripheral_Library_v2.1.16/XMCLib/src/xmc4_scu.c ****   uint32_t clock_frequency;
 1380              		.loc 1 685 3 view .LVU252
 686:/opt/XMClib/XMC_Peripheral_Library_v2.1.16/XMCLib/src/xmc4_scu.c ****   uint32_t p_div;
 1381              		.loc 1 686 3 view .LVU253
 687:/opt/XMClib/XMC_Peripheral_Library_v2.1.16/XMCLib/src/xmc4_scu.c ****   uint32_t n_div;
 1382              		.loc 1 687 3 view .LVU254
 688:/opt/XMClib/XMC_Peripheral_Library_v2.1.16/XMCLib/src/xmc4_scu.c ****   uint32_t k2_div;
 1383              		.loc 1 688 3 view .LVU255
 689:/opt/XMClib/XMC_Peripheral_Library_v2.1.16/XMCLib/src/xmc4_scu.c **** 
 690:/opt/XMClib/XMC_Peripheral_Library_v2.1.16/XMCLib/src/xmc4_scu.c ****   clock_frequency = XMC_SCU_CLOCK_GetSystemPllClockSourceFrequency();
 1384              		.loc 1 690 3 view .LVU256
 1385              	.LBB62:
 1386              	.LBI62:
 691:/opt/XMClib/XMC_Peripheral_Library_v2.1.16/XMCLib/src/xmc4_scu.c ****   if(SCU_PLL->PLLSTAT & SCU_PLL_PLLSTAT_VCOBYST_Msk)
 692:/opt/XMClib/XMC_Peripheral_Library_v2.1.16/XMCLib/src/xmc4_scu.c ****   {
 693:/opt/XMClib/XMC_Peripheral_Library_v2.1.16/XMCLib/src/xmc4_scu.c ****     /* Prescalar mode - fOSC is the parent*/
 694:/opt/XMClib/XMC_Peripheral_Library_v2.1.16/XMCLib/src/xmc4_scu.c ****     clock_frequency = (uint32_t)(clock_frequency / 
 695:/opt/XMClib/XMC_Peripheral_Library_v2.1.16/XMCLib/src/xmc4_scu.c ****                       ((((SCU_PLL->PLLCON1) & SCU_PLL_PLLCON1_K1DIV_Msk) >> SCU_PLL_PLLCON1_K1DIV_P
 696:/opt/XMClib/XMC_Peripheral_Library_v2.1.16/XMCLib/src/xmc4_scu.c ****   }
 697:/opt/XMClib/XMC_Peripheral_Library_v2.1.16/XMCLib/src/xmc4_scu.c ****   else
 698:/opt/XMClib/XMC_Peripheral_Library_v2.1.16/XMCLib/src/xmc4_scu.c ****   {
 699:/opt/XMClib/XMC_Peripheral_Library_v2.1.16/XMCLib/src/xmc4_scu.c ****     p_div  = (uint32_t)((((SCU_PLL->PLLCON1) & SCU_PLL_PLLCON1_PDIV_Msk) >> SCU_PLL_PLLCON1_PDIV_Po
 700:/opt/XMClib/XMC_Peripheral_Library_v2.1.16/XMCLib/src/xmc4_scu.c ****     n_div  = (uint32_t)((((SCU_PLL->PLLCON1) & SCU_PLL_PLLCON1_NDIV_Msk) >> SCU_PLL_PLLCON1_NDIV_Po
 701:/opt/XMClib/XMC_Peripheral_Library_v2.1.16/XMCLib/src/xmc4_scu.c ****     k2_div = (uint32_t)((((SCU_PLL->PLLCON1) & SCU_PLL_PLLCON1_K2DIV_Msk) >> SCU_PLL_PLLCON1_K2DIV_
 702:/opt/XMClib/XMC_Peripheral_Library_v2.1.16/XMCLib/src/xmc4_scu.c ****        
 703:/opt/XMClib/XMC_Peripheral_Library_v2.1.16/XMCLib/src/xmc4_scu.c ****     clock_frequency = (clock_frequency * n_div) / (p_div * k2_div);
 704:/opt/XMClib/XMC_Peripheral_Library_v2.1.16/XMCLib/src/xmc4_scu.c ****   }
 705:/opt/XMClib/XMC_Peripheral_Library_v2.1.16/XMCLib/src/xmc4_scu.c **** 
 706:/opt/XMClib/XMC_Peripheral_Library_v2.1.16/XMCLib/src/xmc4_scu.c ****   return (clock_frequency);
 707:/opt/XMClib/XMC_Peripheral_Library_v2.1.16/XMCLib/src/xmc4_scu.c **** }
 708:/opt/XMClib/XMC_Peripheral_Library_v2.1.16/XMCLib/src/xmc4_scu.c **** 
 709:/opt/XMClib/XMC_Peripheral_Library_v2.1.16/XMCLib/src/xmc4_scu.c **** /**
 710:/opt/XMClib/XMC_Peripheral_Library_v2.1.16/XMCLib/src/xmc4_scu.c ****  * API to retrieve frequency of System PLL VCO input clock
 711:/opt/XMClib/XMC_Peripheral_Library_v2.1.16/XMCLib/src/xmc4_scu.c ****  */
 712:/opt/XMClib/XMC_Peripheral_Library_v2.1.16/XMCLib/src/xmc4_scu.c **** uint32_t XMC_SCU_CLOCK_GetSystemPllClockSourceFrequency(void)
 1387              		.loc 1 712 10 view .LVU257
 1388              	.LBB63:
 713:/opt/XMClib/XMC_Peripheral_Library_v2.1.16/XMCLib/src/xmc4_scu.c **** {
 714:/opt/XMClib/XMC_Peripheral_Library_v2.1.16/XMCLib/src/xmc4_scu.c ****   uint32_t clock_frequency;
 1389              		.loc 1 714 3 view .LVU258
 715:/opt/XMClib/XMC_Peripheral_Library_v2.1.16/XMCLib/src/xmc4_scu.c **** 
 716:/opt/XMClib/XMC_Peripheral_Library_v2.1.16/XMCLib/src/xmc4_scu.c ****   /* Prescalar mode - fOSC is the parent*/
 717:/opt/XMClib/XMC_Peripheral_Library_v2.1.16/XMCLib/src/xmc4_scu.c ****   if((SCU_PLL->PLLCON2 & SCU_PLL_PLLCON2_PINSEL_Msk) == (uint32_t)XMC_SCU_CLOCK_SYSPLLCLKSRC_OSCHP)
 1390              		.loc 1 717 3 view .LVU259
 1391              		.loc 1 717 14 is_stmt 0 view .LVU260
 1392 0000 124B     		ldr	r3, .L124
 1393 0002 DB69     		ldr	r3, [r3, #28]
 1394              		.loc 1 717 5 view .LVU261
 1395 0004 DA07     		lsls	r2, r3, #31
 1396              	.LBE63:
 1397              	.LBE62:
 684:/opt/XMClib/XMC_Peripheral_Library_v2.1.16/XMCLib/src/xmc4_scu.c ****   uint32_t clock_frequency;
 1398              		.loc 1 684 1 view .LVU262
 1399 0006 10B5     		push	{r4, lr}
 1400              	.LCFI0:
 1401              		.cfi_def_cfa_offset 8
 1402              		.cfi_offset 4, -8
 1403              		.cfi_offset 14, -4
 1404              	.LBB66:
 1405              	.LBB64:
 1406              		.loc 1 717 5 view .LVU263
 1407 0008 1CD5     		bpl	.L123
 718:/opt/XMClib/XMC_Peripheral_Library_v2.1.16/XMCLib/src/xmc4_scu.c ****   {
 719:/opt/XMClib/XMC_Peripheral_Library_v2.1.16/XMCLib/src/xmc4_scu.c ****     clock_frequency = OSCHP_GetFrequency();
 720:/opt/XMClib/XMC_Peripheral_Library_v2.1.16/XMCLib/src/xmc4_scu.c ****   }
 721:/opt/XMClib/XMC_Peripheral_Library_v2.1.16/XMCLib/src/xmc4_scu.c ****   else
 722:/opt/XMClib/XMC_Peripheral_Library_v2.1.16/XMCLib/src/xmc4_scu.c ****   {
 723:/opt/XMClib/XMC_Peripheral_Library_v2.1.16/XMCLib/src/xmc4_scu.c ****     clock_frequency = OFI_FREQUENCY;
 1408              		.loc 1 723 21 view .LVU264
 1409 000a 1148     		ldr	r0, .L124+4
 1410              	.L118:
 1411              	.LVL66:
 724:/opt/XMClib/XMC_Peripheral_Library_v2.1.16/XMCLib/src/xmc4_scu.c ****   }
 725:/opt/XMClib/XMC_Peripheral_Library_v2.1.16/XMCLib/src/xmc4_scu.c ****   
 726:/opt/XMClib/XMC_Peripheral_Library_v2.1.16/XMCLib/src/xmc4_scu.c ****   return (clock_frequency);
 1412              		.loc 1 726 3 is_stmt 1 view .LVU265
 1413              		.loc 1 726 3 is_stmt 0 view .LVU266
 1414              	.LBE64:
 1415              	.LBE66:
 691:/opt/XMClib/XMC_Peripheral_Library_v2.1.16/XMCLib/src/xmc4_scu.c ****   {
 1416              		.loc 1 691 3 is_stmt 1 view .LVU267
 691:/opt/XMClib/XMC_Peripheral_Library_v2.1.16/XMCLib/src/xmc4_scu.c ****   {
 1417              		.loc 1 691 13 is_stmt 0 view .LVU268
 1418 000c 0F4A     		ldr	r2, .L124
 1419 000e 1369     		ldr	r3, [r2, #16]
 691:/opt/XMClib/XMC_Peripheral_Library_v2.1.16/XMCLib/src/xmc4_scu.c ****   {
 1420              		.loc 1 691 5 view .LVU269
 1421 0010 DB07     		lsls	r3, r3, #31
 1422 0012 06D5     		bpl	.L119
 694:/opt/XMClib/XMC_Peripheral_Library_v2.1.16/XMCLib/src/xmc4_scu.c ****                       ((((SCU_PLL->PLLCON1) & SCU_PLL_PLLCON1_K1DIV_Msk) >> SCU_PLL_PLLCON1_K1DIV_P
 1423              		.loc 1 694 5 is_stmt 1 view .LVU270
 695:/opt/XMClib/XMC_Peripheral_Library_v2.1.16/XMCLib/src/xmc4_scu.c ****   }
 1424              		.loc 1 695 34 is_stmt 0 view .LVU271
 1425 0014 9369     		ldr	r3, [r2, #24]
 695:/opt/XMClib/XMC_Peripheral_Library_v2.1.16/XMCLib/src/xmc4_scu.c ****   }
 1426              		.loc 1 695 74 view .LVU272
 1427 0016 03F07F03 		and	r3, r3, #127
 695:/opt/XMClib/XMC_Peripheral_Library_v2.1.16/XMCLib/src/xmc4_scu.c ****   }
 1428              		.loc 1 695 104 view .LVU273
 1429 001a 0133     		adds	r3, r3, #1
 694:/opt/XMClib/XMC_Peripheral_Library_v2.1.16/XMCLib/src/xmc4_scu.c ****                       ((((SCU_PLL->PLLCON1) & SCU_PLL_PLLCON1_K1DIV_Msk) >> SCU_PLL_PLLCON1_K1DIV_P
 1430              		.loc 1 694 21 view .LVU274
 1431 001c B0FBF3F0 		udiv	r0, r0, r3
 1432              	.LVL67:
 707:/opt/XMClib/XMC_Peripheral_Library_v2.1.16/XMCLib/src/xmc4_scu.c **** 
 1433              		.loc 1 707 1 view .LVU275
 1434 0020 10BD     		pop	{r4, pc}
 1435              	.L119:
 699:/opt/XMClib/XMC_Peripheral_Library_v2.1.16/XMCLib/src/xmc4_scu.c ****     n_div  = (uint32_t)((((SCU_PLL->PLLCON1) & SCU_PLL_PLLCON1_NDIV_Msk) >> SCU_PLL_PLLCON1_NDIV_Po
 1436              		.loc 1 699 5 is_stmt 1 view .LVU276
 699:/opt/XMClib/XMC_Peripheral_Library_v2.1.16/XMCLib/src/xmc4_scu.c ****     n_div  = (uint32_t)((((SCU_PLL->PLLCON1) & SCU_PLL_PLLCON1_NDIV_Msk) >> SCU_PLL_PLLCON1_NDIV_Po
 1437              		.loc 1 699 35 is_stmt 0 view .LVU277
 1438 0022 9169     		ldr	r1, [r2, #24]
 1439              	.LVL68:
 700:/opt/XMClib/XMC_Peripheral_Library_v2.1.16/XMCLib/src/xmc4_scu.c ****     k2_div = (uint32_t)((((SCU_PLL->PLLCON1) & SCU_PLL_PLLCON1_K2DIV_Msk) >> SCU_PLL_PLLCON1_K2DIV_
 1440              		.loc 1 700 5 is_stmt 1 view .LVU278
 700:/opt/XMClib/XMC_Peripheral_Library_v2.1.16/XMCLib/src/xmc4_scu.c ****     k2_div = (uint32_t)((((SCU_PLL->PLLCON1) & SCU_PLL_PLLCON1_K2DIV_Msk) >> SCU_PLL_PLLCON1_K2DIV_
 1441              		.loc 1 700 35 is_stmt 0 view .LVU279
 1442 0024 9469     		ldr	r4, [r2, #24]
 1443              	.LVL69:
 701:/opt/XMClib/XMC_Peripheral_Library_v2.1.16/XMCLib/src/xmc4_scu.c ****        
 1444              		.loc 1 701 5 is_stmt 1 view .LVU280
 701:/opt/XMClib/XMC_Peripheral_Library_v2.1.16/XMCLib/src/xmc4_scu.c ****        
 1445              		.loc 1 701 35 is_stmt 0 view .LVU281
 1446 0026 9369     		ldr	r3, [r2, #24]
 1447              	.LVL70:
 703:/opt/XMClib/XMC_Peripheral_Library_v2.1.16/XMCLib/src/xmc4_scu.c ****   }
 1448              		.loc 1 703 5 is_stmt 1 view .LVU282
 701:/opt/XMClib/XMC_Peripheral_Library_v2.1.16/XMCLib/src/xmc4_scu.c ****        
 1449              		.loc 1 701 75 is_stmt 0 view .LVU283
 1450 0028 C3F30643 		ubfx	r3, r3, #16, #7
 1451              	.LVL71:
 700:/opt/XMClib/XMC_Peripheral_Library_v2.1.16/XMCLib/src/xmc4_scu.c ****     k2_div = (uint32_t)((((SCU_PLL->PLLCON1) & SCU_PLL_PLLCON1_K2DIV_Msk) >> SCU_PLL_PLLCON1_K2DIV_
 1452              		.loc 1 700 74 view .LVU284
 1453 002c C4F3062C 		ubfx	ip, r4, #8, #7
 699:/opt/XMClib/XMC_Peripheral_Library_v2.1.16/XMCLib/src/xmc4_scu.c ****     n_div  = (uint32_t)((((SCU_PLL->PLLCON1) & SCU_PLL_PLLCON1_NDIV_Msk) >> SCU_PLL_PLLCON1_NDIV_Po
 1454              		.loc 1 699 74 view .LVU285
 1455 0030 C1F30362 		ubfx	r2, r1, #24, #4
 701:/opt/XMClib/XMC_Peripheral_Library_v2.1.16/XMCLib/src/xmc4_scu.c ****        
 1456              		.loc 1 701 12 view .LVU286
 1457 0034 0133     		adds	r3, r3, #1
 703:/opt/XMClib/XMC_Peripheral_Library_v2.1.16/XMCLib/src/xmc4_scu.c ****   }
 1458              		.loc 1 703 40 view .LVU287
 1459 0036 0CFB0000 		mla	r0, ip, r0, r0
 1460              	.LVL72:
 703:/opt/XMClib/XMC_Peripheral_Library_v2.1.16/XMCLib/src/xmc4_scu.c ****   }
 1461              		.loc 1 703 58 view .LVU288
 1462 003a 02FB0333 		mla	r3, r2, r3, r3
 703:/opt/XMClib/XMC_Peripheral_Library_v2.1.16/XMCLib/src/xmc4_scu.c ****   }
 1463              		.loc 1 703 21 view .LVU289
 1464 003e B0FBF3F0 		udiv	r0, r0, r3
 1465              	.LVL73:
 706:/opt/XMClib/XMC_Peripheral_Library_v2.1.16/XMCLib/src/xmc4_scu.c **** }
 1466              		.loc 1 706 3 is_stmt 1 view .LVU290
 707:/opt/XMClib/XMC_Peripheral_Library_v2.1.16/XMCLib/src/xmc4_scu.c **** 
 1467              		.loc 1 707 1 is_stmt 0 view .LVU291
 1468 0042 10BD     		pop	{r4, pc}
 1469              	.LVL74:
 1470              	.L123:
 1471              	.LBB67:
 1472              	.LBB65:
 719:/opt/XMClib/XMC_Peripheral_Library_v2.1.16/XMCLib/src/xmc4_scu.c ****   }
 1473              		.loc 1 719 5 is_stmt 1 view .LVU292
 719:/opt/XMClib/XMC_Peripheral_Library_v2.1.16/XMCLib/src/xmc4_scu.c ****   }
 1474              		.loc 1 719 23 is_stmt 0 view .LVU293
 1475 0044 FFF7FEFF 		bl	OSCHP_GetFrequency
 1476              	.LVL75:
 719:/opt/XMClib/XMC_Peripheral_Library_v2.1.16/XMCLib/src/xmc4_scu.c ****   }
 1477              		.loc 1 719 23 view .LVU294
 1478 0048 E0E7     		b	.L118
 1479              	.L125:
 1480 004a 00BF     		.align	2
 1481              	.L124:
 1482 004c 00470050 		.word	1342195456
 1483 0050 00366E01 		.word	24000000
 1484              	.LBE65:
 1485              	.LBE67:
 1486              		.cfi_endproc
 1487              	.LFE201:
 1489              		.section	.text.XMC_SCU_CLOCK_GetSystemPllClockSourceFrequency,"ax",%progbits
 1490              		.align	1
 1491              		.p2align 2,,3
 1492              		.global	XMC_SCU_CLOCK_GetSystemPllClockSourceFrequency
 1493              		.syntax unified
 1494              		.thumb
 1495              		.thumb_func
 1496              		.fpu fpv4-sp-d16
 1498              	XMC_SCU_CLOCK_GetSystemPllClockSourceFrequency:
 1499              	.LFB202:
 713:/opt/XMClib/XMC_Peripheral_Library_v2.1.16/XMCLib/src/xmc4_scu.c ****   uint32_t clock_frequency;
 1500              		.loc 1 713 1 is_stmt 1 view -0
 1501              		.cfi_startproc
 1502              		@ args = 0, pretend = 0, frame = 0
 1503              		@ frame_needed = 0, uses_anonymous_args = 0
 1504              		@ link register save eliminated.
 714:/opt/XMClib/XMC_Peripheral_Library_v2.1.16/XMCLib/src/xmc4_scu.c **** 
 1505              		.loc 1 714 3 view .LVU296
 717:/opt/XMClib/XMC_Peripheral_Library_v2.1.16/XMCLib/src/xmc4_scu.c ****   {
 1506              		.loc 1 717 3 view .LVU297
 717:/opt/XMClib/XMC_Peripheral_Library_v2.1.16/XMCLib/src/xmc4_scu.c ****   {
 1507              		.loc 1 717 14 is_stmt 0 view .LVU298
 1508 0000 034B     		ldr	r3, .L129
 1509 0002 DB69     		ldr	r3, [r3, #28]
 717:/opt/XMClib/XMC_Peripheral_Library_v2.1.16/XMCLib/src/xmc4_scu.c ****   {
 1510              		.loc 1 717 5 view .LVU299
 1511 0004 DB07     		lsls	r3, r3, #31
 1512 0006 01D5     		bpl	.L128
 1513              	.LVL76:
 1514              		.loc 1 726 3 is_stmt 1 view .LVU300
 727:/opt/XMClib/XMC_Peripheral_Library_v2.1.16/XMCLib/src/xmc4_scu.c **** }
 1515              		.loc 1 727 1 is_stmt 0 view .LVU301
 1516 0008 0248     		ldr	r0, .L129+4
 1517 000a 7047     		bx	lr
 1518              	.LVL77:
 1519              	.L128:
 719:/opt/XMClib/XMC_Peripheral_Library_v2.1.16/XMCLib/src/xmc4_scu.c ****   }
 1520              		.loc 1 719 5 is_stmt 1 view .LVU302
 719:/opt/XMClib/XMC_Peripheral_Library_v2.1.16/XMCLib/src/xmc4_scu.c ****   }
 1521              		.loc 1 719 23 is_stmt 0 view .LVU303
 1522 000c FFF7FEBF 		b	OSCHP_GetFrequency
 1523              	.LVL78:
 1524              	.L130:
 1525              		.align	2
 1526              	.L129:
 1527 0010 00470050 		.word	1342195456
 1528 0014 00366E01 		.word	24000000
 1529              		.cfi_endproc
 1530              	.LFE202:
 1532              		.section	.text.XMC_SCU_CLOCK_GetUsbPllClockFrequency,"ax",%progbits
 1533              		.align	1
 1534              		.p2align 2,,3
 1535              		.global	XMC_SCU_CLOCK_GetUsbPllClockFrequency
 1536              		.syntax unified
 1537              		.thumb
 1538              		.thumb_func
 1539              		.fpu fpv4-sp-d16
 1541              	XMC_SCU_CLOCK_GetUsbPllClockFrequency:
 1542              	.LFB203:
 728:/opt/XMClib/XMC_Peripheral_Library_v2.1.16/XMCLib/src/xmc4_scu.c **** 
 729:/opt/XMClib/XMC_Peripheral_Library_v2.1.16/XMCLib/src/xmc4_scu.c **** /*
 730:/opt/XMClib/XMC_Peripheral_Library_v2.1.16/XMCLib/src/xmc4_scu.c ****  * API to retrieve frequency of USB PLL output clock
 731:/opt/XMClib/XMC_Peripheral_Library_v2.1.16/XMCLib/src/xmc4_scu.c ****  */
 732:/opt/XMClib/XMC_Peripheral_Library_v2.1.16/XMCLib/src/xmc4_scu.c **** uint32_t XMC_SCU_CLOCK_GetUsbPllClockFrequency(void)
 733:/opt/XMClib/XMC_Peripheral_Library_v2.1.16/XMCLib/src/xmc4_scu.c **** {
 1543              		.loc 1 733 1 is_stmt 1 view -0
 1544              		.cfi_startproc
 1545              		@ args = 0, pretend = 0, frame = 0
 1546              		@ frame_needed = 0, uses_anonymous_args = 0
 734:/opt/XMClib/XMC_Peripheral_Library_v2.1.16/XMCLib/src/xmc4_scu.c ****   uint32_t clock_frequency;
 1547              		.loc 1 734 3 view .LVU305
 735:/opt/XMClib/XMC_Peripheral_Library_v2.1.16/XMCLib/src/xmc4_scu.c ****   uint32_t n_div;
 1548              		.loc 1 735 3 view .LVU306
 736:/opt/XMClib/XMC_Peripheral_Library_v2.1.16/XMCLib/src/xmc4_scu.c ****   uint32_t p_div;
 1549              		.loc 1 736 3 view .LVU307
 737:/opt/XMClib/XMC_Peripheral_Library_v2.1.16/XMCLib/src/xmc4_scu.c ****   
 738:/opt/XMClib/XMC_Peripheral_Library_v2.1.16/XMCLib/src/xmc4_scu.c ****   clock_frequency = OSCHP_GetFrequency();
 1550              		.loc 1 738 3 view .LVU308
 733:/opt/XMClib/XMC_Peripheral_Library_v2.1.16/XMCLib/src/xmc4_scu.c ****   uint32_t clock_frequency;
 1551              		.loc 1 733 1 is_stmt 0 view .LVU309
 1552 0000 08B5     		push	{r3, lr}
 1553              	.LCFI1:
 1554              		.cfi_def_cfa_offset 8
 1555              		.cfi_offset 3, -8
 1556              		.cfi_offset 14, -4
 1557              		.loc 1 738 21 view .LVU310
 1558 0002 FFF7FEFF 		bl	OSCHP_GetFrequency
 1559              	.LVL79:
 739:/opt/XMClib/XMC_Peripheral_Library_v2.1.16/XMCLib/src/xmc4_scu.c ****   if((SCU_PLL->USBPLLSTAT & SCU_PLL_USBPLLSTAT_VCOBYST_Msk) == 0U)
 1560              		.loc 1 739 14 view .LVU311
 1561 0006 084B     		ldr	r3, .L134
 1562              	.LVL80:
 1563              		.loc 1 739 3 is_stmt 1 view .LVU312
 1564              		.loc 1 739 14 is_stmt 0 view .LVU313
 1565 0008 1A6A     		ldr	r2, [r3, #32]
 1566              		.loc 1 739 5 view .LVU314
 1567 000a D207     		lsls	r2, r2, #31
 1568 000c 0BD4     		bmi	.L131
 740:/opt/XMClib/XMC_Peripheral_Library_v2.1.16/XMCLib/src/xmc4_scu.c ****   {
 741:/opt/XMClib/XMC_Peripheral_Library_v2.1.16/XMCLib/src/xmc4_scu.c ****     /* Normal mode - fVCO is the parent*/
 742:/opt/XMClib/XMC_Peripheral_Library_v2.1.16/XMCLib/src/xmc4_scu.c ****     n_div = (uint32_t)((((SCU_PLL->USBPLLCON) & SCU_PLL_USBPLLCON_NDIV_Msk) >> SCU_PLL_USBPLLCON_ND
 1569              		.loc 1 742 5 is_stmt 1 view .LVU315
 1570              		.loc 1 742 34 is_stmt 0 view .LVU316
 1571 000e 5A6A     		ldr	r2, [r3, #36]
 1572              	.LVL81:
 743:/opt/XMClib/XMC_Peripheral_Library_v2.1.16/XMCLib/src/xmc4_scu.c ****     p_div = (uint32_t)((((SCU_PLL->USBPLLCON) & SCU_PLL_USBPLLCON_PDIV_Msk) >> SCU_PLL_USBPLLCON_PD
 1573              		.loc 1 743 5 is_stmt 1 view .LVU317
 1574              		.loc 1 743 34 is_stmt 0 view .LVU318
 1575 0010 5B6A     		ldr	r3, [r3, #36]
 1576              	.LVL82:
 744:/opt/XMClib/XMC_Peripheral_Library_v2.1.16/XMCLib/src/xmc4_scu.c ****     clock_frequency = (uint32_t)((clock_frequency * n_div)/ (uint32_t)(p_div * 2UL));
 1577              		.loc 1 744 5 is_stmt 1 view .LVU319
 743:/opt/XMClib/XMC_Peripheral_Library_v2.1.16/XMCLib/src/xmc4_scu.c ****     p_div = (uint32_t)((((SCU_PLL->USBPLLCON) & SCU_PLL_USBPLLCON_PDIV_Msk) >> SCU_PLL_USBPLLCON_PD
 1578              		.loc 1 743 77 is_stmt 0 view .LVU320
 1579 0012 C3F30363 		ubfx	r3, r3, #24, #4
 1580              	.LVL83:
 742:/opt/XMClib/XMC_Peripheral_Library_v2.1.16/XMCLib/src/xmc4_scu.c ****     p_div = (uint32_t)((((SCU_PLL->USBPLLCON) & SCU_PLL_USBPLLCON_PDIV_Msk) >> SCU_PLL_USBPLLCON_PD
 1581              		.loc 1 742 77 view .LVU321
 1582 0016 C2F30622 		ubfx	r2, r2, #8, #7
 1583              	.LVL84:
 743:/opt/XMClib/XMC_Peripheral_Library_v2.1.16/XMCLib/src/xmc4_scu.c ****     p_div = (uint32_t)((((SCU_PLL->USBPLLCON) & SCU_PLL_USBPLLCON_PDIV_Msk) >> SCU_PLL_USBPLLCON_PD
 1584              		.loc 1 743 11 view .LVU322
 1585 001a 0133     		adds	r3, r3, #1
 1586              		.loc 1 744 51 view .LVU323
 1587 001c 02FB0000 		mla	r0, r2, r0, r0
 1588              	.LVL85:
 1589              		.loc 1 744 61 view .LVU324
 1590 0020 5B00     		lsls	r3, r3, #1
 1591              		.loc 1 744 21 view .LVU325
 1592 0022 B0FBF3F0 		udiv	r0, r0, r3
 1593              	.LVL86:
 745:/opt/XMClib/XMC_Peripheral_Library_v2.1.16/XMCLib/src/xmc4_scu.c ****   }
 746:/opt/XMClib/XMC_Peripheral_Library_v2.1.16/XMCLib/src/xmc4_scu.c ****   return (clock_frequency);
 1594              		.loc 1 746 3 is_stmt 1 view .LVU326
 1595              	.L131:
 747:/opt/XMClib/XMC_Peripheral_Library_v2.1.16/XMCLib/src/xmc4_scu.c **** }
 1596              		.loc 1 747 1 is_stmt 0 view .LVU327
 1597 0026 08BD     		pop	{r3, pc}
 1598              	.L135:
 1599              		.align	2
 1600              	.L134:
 1601 0028 00470050 		.word	1342195456
 1602              		.cfi_endproc
 1603              	.LFE203:
 1605              		.section	.text.XMC_SCU_CLOCK_GetCcuClockFrequency,"ax",%progbits
 1606              		.align	1
 1607              		.p2align 2,,3
 1608              		.global	XMC_SCU_CLOCK_GetCcuClockFrequency
 1609              		.syntax unified
 1610              		.thumb
 1611              		.thumb_func
 1612              		.fpu fpv4-sp-d16
 1614              	XMC_SCU_CLOCK_GetCcuClockFrequency:
 1615              	.LFB204:
 748:/opt/XMClib/XMC_Peripheral_Library_v2.1.16/XMCLib/src/xmc4_scu.c **** 
 749:/opt/XMClib/XMC_Peripheral_Library_v2.1.16/XMCLib/src/xmc4_scu.c **** /*
 750:/opt/XMClib/XMC_Peripheral_Library_v2.1.16/XMCLib/src/xmc4_scu.c ****  * API to retrieve frequency of CCU clock frequency
 751:/opt/XMClib/XMC_Peripheral_Library_v2.1.16/XMCLib/src/xmc4_scu.c ****  */
 752:/opt/XMClib/XMC_Peripheral_Library_v2.1.16/XMCLib/src/xmc4_scu.c **** uint32_t XMC_SCU_CLOCK_GetCcuClockFrequency(void)
 753:/opt/XMClib/XMC_Peripheral_Library_v2.1.16/XMCLib/src/xmc4_scu.c **** {
 1616              		.loc 1 753 1 is_stmt 1 view -0
 1617              		.cfi_startproc
 1618              		@ args = 0, pretend = 0, frame = 0
 1619              		@ frame_needed = 0, uses_anonymous_args = 0
 1620              		@ link register save eliminated.
 754:/opt/XMClib/XMC_Peripheral_Library_v2.1.16/XMCLib/src/xmc4_scu.c ****   uint32_t frequency = 0UL;
 1621              		.loc 1 754 3 view .LVU329
 1622              	.LVL87:
 755:/opt/XMClib/XMC_Peripheral_Library_v2.1.16/XMCLib/src/xmc4_scu.c ****   frequency = XMC_SCU_CLOCK_GetSystemClockFrequency();
 1623              		.loc 1 755 3 view .LVU330
 1624              	.LBB68:
 1625              	.LBI68:
 1626              		.file 2 "/opt/XMClib/XMC_Peripheral_Library_v2.1.16/XMCLib/inc/xmc4_scu.h"
   1:/opt/XMClib/XMC_Peripheral_Library_v2.1.16/XMCLib/inc/xmc4_scu.h **** /**
   2:/opt/XMClib/XMC_Peripheral_Library_v2.1.16/XMCLib/inc/xmc4_scu.h ****  * @file xmc4_scu.h
   3:/opt/XMClib/XMC_Peripheral_Library_v2.1.16/XMCLib/inc/xmc4_scu.h ****  * @date 2016-06-15
   4:/opt/XMClib/XMC_Peripheral_Library_v2.1.16/XMCLib/inc/xmc4_scu.h ****  *
   5:/opt/XMClib/XMC_Peripheral_Library_v2.1.16/XMCLib/inc/xmc4_scu.h ****  * @cond
   6:/opt/XMClib/XMC_Peripheral_Library_v2.1.16/XMCLib/inc/xmc4_scu.h ****  **************************************************************************************************
   7:/opt/XMClib/XMC_Peripheral_Library_v2.1.16/XMCLib/inc/xmc4_scu.h ****  * XMClib v2.1.16 - XMC Peripheral Driver Library 
   8:/opt/XMClib/XMC_Peripheral_Library_v2.1.16/XMCLib/inc/xmc4_scu.h ****  *
   9:/opt/XMClib/XMC_Peripheral_Library_v2.1.16/XMCLib/inc/xmc4_scu.h ****  * Copyright (c) 2015-2017, Infineon Technologies AG
  10:/opt/XMClib/XMC_Peripheral_Library_v2.1.16/XMCLib/inc/xmc4_scu.h ****  * All rights reserved.                        
  11:/opt/XMClib/XMC_Peripheral_Library_v2.1.16/XMCLib/inc/xmc4_scu.h ****  *                                             
  12:/opt/XMClib/XMC_Peripheral_Library_v2.1.16/XMCLib/inc/xmc4_scu.h ****  * Redistribution and use in source and binary forms, with or without modification,are permitted pr
  13:/opt/XMClib/XMC_Peripheral_Library_v2.1.16/XMCLib/inc/xmc4_scu.h ****  * following conditions are met:   
  14:/opt/XMClib/XMC_Peripheral_Library_v2.1.16/XMCLib/inc/xmc4_scu.h ****  *                                                                              
  15:/opt/XMClib/XMC_Peripheral_Library_v2.1.16/XMCLib/inc/xmc4_scu.h ****  * Redistributions of source code must retain the above copyright notice, this list of conditions a
  16:/opt/XMClib/XMC_Peripheral_Library_v2.1.16/XMCLib/inc/xmc4_scu.h ****  * disclaimer.                        
  17:/opt/XMClib/XMC_Peripheral_Library_v2.1.16/XMCLib/inc/xmc4_scu.h ****  * 
  18:/opt/XMClib/XMC_Peripheral_Library_v2.1.16/XMCLib/inc/xmc4_scu.h ****  * Redistributions in binary form must reproduce the above copyright notice, this list of condition
  19:/opt/XMClib/XMC_Peripheral_Library_v2.1.16/XMCLib/inc/xmc4_scu.h ****  * disclaimer in the documentation and/or other materials provided with the distribution.          
  20:/opt/XMClib/XMC_Peripheral_Library_v2.1.16/XMCLib/inc/xmc4_scu.h ****  * 
  21:/opt/XMClib/XMC_Peripheral_Library_v2.1.16/XMCLib/inc/xmc4_scu.h ****  * Neither the name of the copyright holders nor the names of its contributors may be used to endor
  22:/opt/XMClib/XMC_Peripheral_Library_v2.1.16/XMCLib/inc/xmc4_scu.h ****  * products derived from this software without specific prior written permission.                  
  23:/opt/XMClib/XMC_Peripheral_Library_v2.1.16/XMCLib/inc/xmc4_scu.h ****  *                                                                              
  24:/opt/XMClib/XMC_Peripheral_Library_v2.1.16/XMCLib/inc/xmc4_scu.h ****  * THIS SOFTWARE IS PROVIDED BY THE COPYRIGHT HOLDERS AND CONTRIBUTORS "AS IS" AND ANY EXPRESS OR I
  25:/opt/XMClib/XMC_Peripheral_Library_v2.1.16/XMCLib/inc/xmc4_scu.h ****  * INCLUDING, BUT NOT LIMITED TO, THE IMPLIED WARRANTIES OF MERCHANTABILITY AND FITNESS FOR A PARTI
  26:/opt/XMClib/XMC_Peripheral_Library_v2.1.16/XMCLib/inc/xmc4_scu.h ****  * DISCLAIMED. IN NO EVENT SHALL THE COPYRIGHT HOLDER OR CONTRIBUTORS BE LIABLE  FOR ANY DIRECT, IN
  27:/opt/XMClib/XMC_Peripheral_Library_v2.1.16/XMCLib/inc/xmc4_scu.h ****  * SPECIAL, EXEMPLARY, OR CONSEQUENTIAL DAMAGES (INCLUDING, BUT NOT LIMITED TO, PROCUREMENT OF SUBS
  28:/opt/XMClib/XMC_Peripheral_Library_v2.1.16/XMCLib/inc/xmc4_scu.h ****  * SERVICES; LOSS OF USE, DATA, OR PROFITS; OR BUSINESS INTERRUPTION) HOWEVER CAUSED AND ON ANY THE
  29:/opt/XMClib/XMC_Peripheral_Library_v2.1.16/XMCLib/inc/xmc4_scu.h ****  * WHETHER IN CONTRACT, STRICT LIABILITY,OR TORT (INCLUDING NEGLIGENCE OR OTHERWISE) ARISING IN ANY
  30:/opt/XMClib/XMC_Peripheral_Library_v2.1.16/XMCLib/inc/xmc4_scu.h ****  * OF THIS SOFTWARE, EVEN IF ADVISED OF THE POSSIBILITY OF SUCH DAMAGE.                            
  31:/opt/XMClib/XMC_Peripheral_Library_v2.1.16/XMCLib/inc/xmc4_scu.h ****  *                                                                              
  32:/opt/XMClib/XMC_Peripheral_Library_v2.1.16/XMCLib/inc/xmc4_scu.h ****  * To improve the quality of the software, users are encouraged to share modifications, enhancement
  33:/opt/XMClib/XMC_Peripheral_Library_v2.1.16/XMCLib/inc/xmc4_scu.h ****  * Infineon Technologies AG dave@infineon.com).                                                    
  34:/opt/XMClib/XMC_Peripheral_Library_v2.1.16/XMCLib/inc/xmc4_scu.h ****  **************************************************************************************************
  35:/opt/XMClib/XMC_Peripheral_Library_v2.1.16/XMCLib/inc/xmc4_scu.h ****  *
  36:/opt/XMClib/XMC_Peripheral_Library_v2.1.16/XMCLib/inc/xmc4_scu.h ****  * Change History
  37:/opt/XMClib/XMC_Peripheral_Library_v2.1.16/XMCLib/inc/xmc4_scu.h ****  * --------------
  38:/opt/XMClib/XMC_Peripheral_Library_v2.1.16/XMCLib/inc/xmc4_scu.h ****  *
  39:/opt/XMClib/XMC_Peripheral_Library_v2.1.16/XMCLib/inc/xmc4_scu.h ****  * 2015-06-20:
  40:/opt/XMClib/XMC_Peripheral_Library_v2.1.16/XMCLib/inc/xmc4_scu.h ****  *     - Initial version
  41:/opt/XMClib/XMC_Peripheral_Library_v2.1.16/XMCLib/inc/xmc4_scu.h ****  *     - Documentation improved
  42:/opt/XMClib/XMC_Peripheral_Library_v2.1.16/XMCLib/inc/xmc4_scu.h ****  *
  43:/opt/XMClib/XMC_Peripheral_Library_v2.1.16/XMCLib/inc/xmc4_scu.h ****  * 2015-11-30:
  44:/opt/XMClib/XMC_Peripheral_Library_v2.1.16/XMCLib/inc/xmc4_scu.h ****  *     - Documentation improved
  45:/opt/XMClib/XMC_Peripheral_Library_v2.1.16/XMCLib/inc/xmc4_scu.h ****  *      
  46:/opt/XMClib/XMC_Peripheral_Library_v2.1.16/XMCLib/inc/xmc4_scu.h ****  * 2016-03-09:
  47:/opt/XMClib/XMC_Peripheral_Library_v2.1.16/XMCLib/inc/xmc4_scu.h ****  *     - Added XMC_SCU_POWER_EnableMonitor/XMC_SCU_POWER_DisableMonitor
  48:/opt/XMClib/XMC_Peripheral_Library_v2.1.16/XMCLib/inc/xmc4_scu.h ****  *             XMC_SCU_POWER_GetEVRStatus, XMC_SCU_POWER_GetEVR13Voltage, XMC_SCU_POWER_GetEVR33Vol
  49:/opt/XMClib/XMC_Peripheral_Library_v2.1.16/XMCLib/inc/xmc4_scu.h ****  *     - Added XMC_SCU_HIB_GetHibernateControlStatus,
  50:/opt/XMClib/XMC_Peripheral_Library_v2.1.16/XMCLib/inc/xmc4_scu.h ****  *             XMC_SCU_HIB_GetEventStatus, XMC_SCU_HIB_ClearEventStatus, XMC_SCU_HIB_TriggerEvent, 
  51:/opt/XMClib/XMC_Peripheral_Library_v2.1.16/XMCLib/inc/xmc4_scu.h ****  *             XMC_SCU_HIB_EnableEvent, XMC_SCU_HIB_DisableEvent
  52:/opt/XMClib/XMC_Peripheral_Library_v2.1.16/XMCLib/inc/xmc4_scu.h ****  *     - Added XMC_SCU_HIB_SetWakeupTriggerInput, XMC_SCU_HIB_SetPinMode, XMC_SCU_HIB_SetOutputPinL
  53:/opt/XMClib/XMC_Peripheral_Library_v2.1.16/XMCLib/inc/xmc4_scu.h ****  *             XMC_SCU_HIB_SetInput0, XMC_SCU_HIB_EnterHibernateState
  54:/opt/XMClib/XMC_Peripheral_Library_v2.1.16/XMCLib/inc/xmc4_scu.h ****  *
  55:/opt/XMClib/XMC_Peripheral_Library_v2.1.16/XMCLib/inc/xmc4_scu.h ****  * 2016-04-15:
  56:/opt/XMClib/XMC_Peripheral_Library_v2.1.16/XMCLib/inc/xmc4_scu.h ****  *     - Fixed naming of XMC_SCU_CLOCK_DEEPSLEEP_MODE_CONFIG peripheral clock.
  57:/opt/XMClib/XMC_Peripheral_Library_v2.1.16/XMCLib/inc/xmc4_scu.h ****  *       Added enable and disable for peripheral clocks       
  58:/opt/XMClib/XMC_Peripheral_Library_v2.1.16/XMCLib/inc/xmc4_scu.h ****  * 
  59:/opt/XMClib/XMC_Peripheral_Library_v2.1.16/XMCLib/inc/xmc4_scu.h ****  * 2016-05-19:
  60:/opt/XMClib/XMC_Peripheral_Library_v2.1.16/XMCLib/inc/xmc4_scu.h ****  *     - Added XMC_SCU_CLOCK_IsLowPowerOscillatorStable() and XMC_SCU_CLOCK_IsHighPerformanceOscill
  61:/opt/XMClib/XMC_Peripheral_Library_v2.1.16/XMCLib/inc/xmc4_scu.h ****  *     - Added XMC_SCU_POWER_WaitForInterrupt() and XMC_SCU_POWER_WaitForEvent()
  62:/opt/XMClib/XMC_Peripheral_Library_v2.1.16/XMCLib/inc/xmc4_scu.h ****  *     - Added XMC_SCU_CLOCK_EnableLowPowerOscillatorGeneralPurposeInput(), 
  63:/opt/XMClib/XMC_Peripheral_Library_v2.1.16/XMCLib/inc/xmc4_scu.h ****  *             XMC_SCU_CLOCK_DisableLowPowerOscillatorGeneralPurposeInput(),
  64:/opt/XMClib/XMC_Peripheral_Library_v2.1.16/XMCLib/inc/xmc4_scu.h ****  *             XMC_SCU_CLOCK_GetLowPowerOscillatorGeneralPurposeInputStatus()
  65:/opt/XMClib/XMC_Peripheral_Library_v2.1.16/XMCLib/inc/xmc4_scu.h ****  *     - Added XMC_SCU_CLOCK_EnableHighPerformanceOscillatorGeneralPurposeInput(), 
  66:/opt/XMClib/XMC_Peripheral_Library_v2.1.16/XMCLib/inc/xmc4_scu.h ****  *             XMC_SCU_CLOCK_DisableHighPerformanceOscillatorGeneralPurposeInput(),
  67:/opt/XMClib/XMC_Peripheral_Library_v2.1.16/XMCLib/inc/xmc4_scu.h ****  *             XMC_SCU_CLOCK_GetHighPerformanceOscillatorGeneralPurposeInputStatus()
  68:/opt/XMClib/XMC_Peripheral_Library_v2.1.16/XMCLib/inc/xmc4_scu.h ****  *     - Removed XMC_SCU_INTERRUPT_EVENT_OSCULSTAT_UPDATED, XMC_SCU_INTERRUPT_EVENT_HDSTAT_UPDATED
  69:/opt/XMClib/XMC_Peripheral_Library_v2.1.16/XMCLib/inc/xmc4_scu.h ****  *
  70:/opt/XMClib/XMC_Peripheral_Library_v2.1.16/XMCLib/inc/xmc4_scu.h ****  * 2016-06-14:
  71:/opt/XMClib/XMC_Peripheral_Library_v2.1.16/XMCLib/inc/xmc4_scu.h ****  *     - Added XMC_SCU_HIB_IsWakeupEventDetected() and XMC_SCU_HIB_ClearWakeupEventDetectionStatus(
  72:/opt/XMClib/XMC_Peripheral_Library_v2.1.16/XMCLib/inc/xmc4_scu.h ****  *
  73:/opt/XMClib/XMC_Peripheral_Library_v2.1.16/XMCLib/inc/xmc4_scu.h ****  * 2016-06-15:
  74:/opt/XMClib/XMC_Peripheral_Library_v2.1.16/XMCLib/inc/xmc4_scu.h ****  *     - Added XMC_SCU_HIB_EnterHibernateStateEx() which allows to select between external or inter
  75:/opt/XMClib/XMC_Peripheral_Library_v2.1.16/XMCLib/inc/xmc4_scu.h ****  *     - Extended wakeup hibernate events using LPAC wakeup on events. Only available in XMC44, XMC
  76:/opt/XMClib/XMC_Peripheral_Library_v2.1.16/XMCLib/inc/xmc4_scu.h ****  *     - Added LPAC APIs. Only available in XMC44, XMC42 and XMC41 series.
  77:/opt/XMClib/XMC_Peripheral_Library_v2.1.16/XMCLib/inc/xmc4_scu.h ****  *
  78:/opt/XMClib/XMC_Peripheral_Library_v2.1.16/XMCLib/inc/xmc4_scu.h ****  * @endcond 
  79:/opt/XMClib/XMC_Peripheral_Library_v2.1.16/XMCLib/inc/xmc4_scu.h ****  *
  80:/opt/XMClib/XMC_Peripheral_Library_v2.1.16/XMCLib/inc/xmc4_scu.h ****  */
  81:/opt/XMClib/XMC_Peripheral_Library_v2.1.16/XMCLib/inc/xmc4_scu.h **** 
  82:/opt/XMClib/XMC_Peripheral_Library_v2.1.16/XMCLib/inc/xmc4_scu.h **** #ifndef XMC4_SCU_H
  83:/opt/XMClib/XMC_Peripheral_Library_v2.1.16/XMCLib/inc/xmc4_scu.h **** #define XMC4_SCU_H
  84:/opt/XMClib/XMC_Peripheral_Library_v2.1.16/XMCLib/inc/xmc4_scu.h **** 
  85:/opt/XMClib/XMC_Peripheral_Library_v2.1.16/XMCLib/inc/xmc4_scu.h **** /**************************************************************************************************
  86:/opt/XMClib/XMC_Peripheral_Library_v2.1.16/XMCLib/inc/xmc4_scu.h ****  * HEADER FILES
  87:/opt/XMClib/XMC_Peripheral_Library_v2.1.16/XMCLib/inc/xmc4_scu.h ****  **************************************************************************************************
  88:/opt/XMClib/XMC_Peripheral_Library_v2.1.16/XMCLib/inc/xmc4_scu.h **** 
  89:/opt/XMClib/XMC_Peripheral_Library_v2.1.16/XMCLib/inc/xmc4_scu.h **** #include "xmc_common.h"
  90:/opt/XMClib/XMC_Peripheral_Library_v2.1.16/XMCLib/inc/xmc4_scu.h **** 
  91:/opt/XMClib/XMC_Peripheral_Library_v2.1.16/XMCLib/inc/xmc4_scu.h **** #if UC_FAMILY == XMC4
  92:/opt/XMClib/XMC_Peripheral_Library_v2.1.16/XMCLib/inc/xmc4_scu.h **** 
  93:/opt/XMClib/XMC_Peripheral_Library_v2.1.16/XMCLib/inc/xmc4_scu.h **** /**
  94:/opt/XMClib/XMC_Peripheral_Library_v2.1.16/XMCLib/inc/xmc4_scu.h ****  * @addtogroup XMClib XMC Peripheral Library
  95:/opt/XMClib/XMC_Peripheral_Library_v2.1.16/XMCLib/inc/xmc4_scu.h ****  * @{
  96:/opt/XMClib/XMC_Peripheral_Library_v2.1.16/XMCLib/inc/xmc4_scu.h ****  */
  97:/opt/XMClib/XMC_Peripheral_Library_v2.1.16/XMCLib/inc/xmc4_scu.h ****  
  98:/opt/XMClib/XMC_Peripheral_Library_v2.1.16/XMCLib/inc/xmc4_scu.h **** /**
  99:/opt/XMClib/XMC_Peripheral_Library_v2.1.16/XMCLib/inc/xmc4_scu.h ****  * @addtogroup SCU
 100:/opt/XMClib/XMC_Peripheral_Library_v2.1.16/XMCLib/inc/xmc4_scu.h ****  * @{
 101:/opt/XMClib/XMC_Peripheral_Library_v2.1.16/XMCLib/inc/xmc4_scu.h ****  */
 102:/opt/XMClib/XMC_Peripheral_Library_v2.1.16/XMCLib/inc/xmc4_scu.h **** 
 103:/opt/XMClib/XMC_Peripheral_Library_v2.1.16/XMCLib/inc/xmc4_scu.h **** /**************************************************************************************************
 104:/opt/XMClib/XMC_Peripheral_Library_v2.1.16/XMCLib/inc/xmc4_scu.h ****  * MACROS
 105:/opt/XMClib/XMC_Peripheral_Library_v2.1.16/XMCLib/inc/xmc4_scu.h ****  **************************************************************************************************
 106:/opt/XMClib/XMC_Peripheral_Library_v2.1.16/XMCLib/inc/xmc4_scu.h **** #define PLL_PDIV_XTAL_8MHZ (1U)  /* PDIV value for main PLL settings, fPLL = 120MHz with fOSC = 8MH
 107:/opt/XMClib/XMC_Peripheral_Library_v2.1.16/XMCLib/inc/xmc4_scu.h **** #define PLL_NDIV_XTAL_8MHZ (89U)  /* NDIV value for main PLL settings, fPLL = 120MHz with fOSC = 8M
 108:/opt/XMClib/XMC_Peripheral_Library_v2.1.16/XMCLib/inc/xmc4_scu.h **** #define PLL_K2DIV_XTAL_8MHZ (2U)  /* K2DIV value for main PLL settings, fPLL = 120MHz with fOSC = 8
 109:/opt/XMClib/XMC_Peripheral_Library_v2.1.16/XMCLib/inc/xmc4_scu.h **** 
 110:/opt/XMClib/XMC_Peripheral_Library_v2.1.16/XMCLib/inc/xmc4_scu.h **** #define PLL_PDIV_XTAL_12MHZ (1U)  /* PDIV value for main PLL settings, fPLL = 120MHz with fOSC = 12
 111:/opt/XMClib/XMC_Peripheral_Library_v2.1.16/XMCLib/inc/xmc4_scu.h **** #define PLL_NDIV_XTAL_12MHZ (79U)  /* NDIV value for main PLL settings, fPLL = 120MHz with fOSC = 1
 112:/opt/XMClib/XMC_Peripheral_Library_v2.1.16/XMCLib/inc/xmc4_scu.h **** #define PLL_K2DIV_XTAL_12MHZ (3U)  /* K2DIV value for main PLL settings, fPLL = 120MHz with fOSC = 
 113:/opt/XMClib/XMC_Peripheral_Library_v2.1.16/XMCLib/inc/xmc4_scu.h **** 
 114:/opt/XMClib/XMC_Peripheral_Library_v2.1.16/XMCLib/inc/xmc4_scu.h **** #define PLL_PDIV_XTAL_16MHZ (1U)  /* PDIV value for main PLL settings, fPLL = 120MHz with fOSC = 16
 115:/opt/XMClib/XMC_Peripheral_Library_v2.1.16/XMCLib/inc/xmc4_scu.h **** #define PLL_NDIV_XTAL_16MHZ (59U)  /* NDIV value for main PLL settings, fPLL = 120MHz with fOSC = 1
 116:/opt/XMClib/XMC_Peripheral_Library_v2.1.16/XMCLib/inc/xmc4_scu.h **** #define PLL_K2DIV_XTAL_16MHZ (3U)  /* K2DIV value for main PLL settings, fPLL = 120MHz with fOSC = 
 117:/opt/XMClib/XMC_Peripheral_Library_v2.1.16/XMCLib/inc/xmc4_scu.h **** 
 118:/opt/XMClib/XMC_Peripheral_Library_v2.1.16/XMCLib/inc/xmc4_scu.h **** #define XMC_SCU_INTERRUPT_EVENT_WDT_WARN           SCU_INTERRUPT_SRSTAT_PRWARN_Msk /**< Watchdog pr
 119:/opt/XMClib/XMC_Peripheral_Library_v2.1.16/XMCLib/inc/xmc4_scu.h **** #define XMC_SCU_INTERRUPT_EVENT_RTC_PERIODIC       SCU_INTERRUPT_SRSTAT_PI_Msk     /**< RTC periodi
 120:/opt/XMClib/XMC_Peripheral_Library_v2.1.16/XMCLib/inc/xmc4_scu.h **** #define XMC_SCU_INTERRUPT_EVENT_RTC_ALARM          SCU_INTERRUPT_SRSTAT_AI_Msk     /**< RTC alarm e
 121:/opt/XMClib/XMC_Peripheral_Library_v2.1.16/XMCLib/inc/xmc4_scu.h **** #define XMC_SCU_INTERRUPT_EVENT_DLR_OVERRUN        SCU_INTERRUPT_SRSTAT_DLROVR_Msk /**< DLR overrun
 122:/opt/XMClib/XMC_Peripheral_Library_v2.1.16/XMCLib/inc/xmc4_scu.h **** #if defined(SCU_INTERRUPT_SRSTAT_LPACCR_Msk)
 123:/opt/XMClib/XMC_Peripheral_Library_v2.1.16/XMCLib/inc/xmc4_scu.h **** #define XMC_SCU_INTERRUPT_EVENT_LPACCR_UPDATED     SCU_INTERRUPT_SRSTAT_LPACCR_Msk /**< LPAC Contro
 124:/opt/XMClib/XMC_Peripheral_Library_v2.1.16/XMCLib/inc/xmc4_scu.h **** #endif
 125:/opt/XMClib/XMC_Peripheral_Library_v2.1.16/XMCLib/inc/xmc4_scu.h **** #if defined(SCU_INTERRUPT_SRSTAT_LPACTH0_Msk)
 126:/opt/XMClib/XMC_Peripheral_Library_v2.1.16/XMCLib/inc/xmc4_scu.h **** #define XMC_SCU_INTERRUPT_EVENT_LPACTH0_UPDATED    SCU_INTERRUPT_SRSTAT_LPACTH0_Msk /**< LPAC Thres
 127:/opt/XMClib/XMC_Peripheral_Library_v2.1.16/XMCLib/inc/xmc4_scu.h **** #endif
 128:/opt/XMClib/XMC_Peripheral_Library_v2.1.16/XMCLib/inc/xmc4_scu.h **** #if defined(SCU_INTERRUPT_SRSTAT_LPACTH1_Msk)
 129:/opt/XMClib/XMC_Peripheral_Library_v2.1.16/XMCLib/inc/xmc4_scu.h **** #define XMC_SCU_INTERRUPT_EVENT_LPACTH1_UPDATED    SCU_INTERRUPT_SRSTAT_LPACTH1_Msk  /**< LPAC Thre
 130:/opt/XMClib/XMC_Peripheral_Library_v2.1.16/XMCLib/inc/xmc4_scu.h **** #endif
 131:/opt/XMClib/XMC_Peripheral_Library_v2.1.16/XMCLib/inc/xmc4_scu.h **** #if defined(SCU_INTERRUPT_SRSTAT_LPACST_Msk)
 132:/opt/XMClib/XMC_Peripheral_Library_v2.1.16/XMCLib/inc/xmc4_scu.h **** #define XMC_SCU_INTERRUPT_EVENT_LPACST_UPDATED     SCU_INTERRUPT_SRSTAT_LPACST_Msk  /**< LPAC Statu
 133:/opt/XMClib/XMC_Peripheral_Library_v2.1.16/XMCLib/inc/xmc4_scu.h **** #endif
 134:/opt/XMClib/XMC_Peripheral_Library_v2.1.16/XMCLib/inc/xmc4_scu.h **** #if defined(SCU_INTERRUPT_SRSTAT_LPACCLR_Msk)
 135:/opt/XMClib/XMC_Peripheral_Library_v2.1.16/XMCLib/inc/xmc4_scu.h **** #define XMC_SCU_INTERRUPT_EVENT_LPACCLR_UPDATED    SCU_INTERRUPT_SRSTAT_LPACCLR_Msk /**< LPAC event
 136:/opt/XMClib/XMC_Peripheral_Library_v2.1.16/XMCLib/inc/xmc4_scu.h **** #endif
 137:/opt/XMClib/XMC_Peripheral_Library_v2.1.16/XMCLib/inc/xmc4_scu.h **** #if defined(SCU_INTERRUPT_SRSTAT_LPACSET_Msk)
 138:/opt/XMClib/XMC_Peripheral_Library_v2.1.16/XMCLib/inc/xmc4_scu.h **** #define XMC_SCU_INTERRUPT_EVENT_LPACSET_UPDATED    SCU_INTERRUPT_SRSTAT_LPACSET_Msk /**< LPAC event
 139:/opt/XMClib/XMC_Peripheral_Library_v2.1.16/XMCLib/inc/xmc4_scu.h **** #endif
 140:/opt/XMClib/XMC_Peripheral_Library_v2.1.16/XMCLib/inc/xmc4_scu.h **** #if defined(SCU_INTERRUPT_SRSTAT_HINTST_Msk)
 141:/opt/XMClib/XMC_Peripheral_Library_v2.1.16/XMCLib/inc/xmc4_scu.h **** #define XMC_SCU_INTERRUPT_EVENT_HINTST_UPDATED     SCU_INTERRUPT_SRSTAT_HINTST_Msk /**< HIB HINTST 
 142:/opt/XMClib/XMC_Peripheral_Library_v2.1.16/XMCLib/inc/xmc4_scu.h **** #endif
 143:/opt/XMClib/XMC_Peripheral_Library_v2.1.16/XMCLib/inc/xmc4_scu.h **** #if defined(SCU_INTERRUPT_SRSTAT_HINTCLR_Msk)
 144:/opt/XMClib/XMC_Peripheral_Library_v2.1.16/XMCLib/inc/xmc4_scu.h **** #define XMC_SCU_INTERRUPT_EVENT_HINTCLR_UPDATED    SCU_INTERRUPT_SRSTAT_HINTCLR_Msk /**< HIB HINTCL
 145:/opt/XMClib/XMC_Peripheral_Library_v2.1.16/XMCLib/inc/xmc4_scu.h **** #endif
 146:/opt/XMClib/XMC_Peripheral_Library_v2.1.16/XMCLib/inc/xmc4_scu.h **** #if defined(SCU_INTERRUPT_SRSTAT_HINTSET_Msk)
 147:/opt/XMClib/XMC_Peripheral_Library_v2.1.16/XMCLib/inc/xmc4_scu.h **** #define XMC_SCU_INTERRUPT_EVENT_HINTSET_UPDATED    SCU_INTERRUPT_SRSTAT_HINTSET_Msk /**< HIB HINTSE
 148:/opt/XMClib/XMC_Peripheral_Library_v2.1.16/XMCLib/inc/xmc4_scu.h **** #endif
 149:/opt/XMClib/XMC_Peripheral_Library_v2.1.16/XMCLib/inc/xmc4_scu.h **** #define XMC_SCU_INTERRUPT_EVENT_HDCLR_UPDATED      SCU_INTERRUPT_SRSTAT_HDCLR_Msk /**< HIB HDCLR re
 150:/opt/XMClib/XMC_Peripheral_Library_v2.1.16/XMCLib/inc/xmc4_scu.h **** #define XMC_SCU_INTERRUPT_EVENT_HDSET_UPDATED      SCU_INTERRUPT_SRSTAT_HDSET_Msk /**< HIB HDSET re
 151:/opt/XMClib/XMC_Peripheral_Library_v2.1.16/XMCLib/inc/xmc4_scu.h **** #define XMC_SCU_INTERRUPT_EVENT_HDCR_UPDATED       SCU_INTERRUPT_SRSTAT_HDCR_Msk /**< HIB HDCR regi
 152:/opt/XMClib/XMC_Peripheral_Library_v2.1.16/XMCLib/inc/xmc4_scu.h **** #define XMC_SCU_INTERRUPT_EVENT_OSCSICTRL_UPDATED  SCU_INTERRUPT_SRSTAT_OSCSICTRL_Msk /**< HIB OSCS
 153:/opt/XMClib/XMC_Peripheral_Library_v2.1.16/XMCLib/inc/xmc4_scu.h **** #define XMC_SCU_INTERRUPT_EVENT_OSCULCTRL_UPDATED  SCU_INTERRUPT_SRSTAT_OSCULCTRL_Msk /**< HIB OSCU
 154:/opt/XMClib/XMC_Peripheral_Library_v2.1.16/XMCLib/inc/xmc4_scu.h **** #define XMC_SCU_INTERRUPT_EVENT_RTCCTR_UPDATED     SCU_INTERRUPT_SRSTAT_RTC_CTR_Msk /**< HIB RTCCTR
 155:/opt/XMClib/XMC_Peripheral_Library_v2.1.16/XMCLib/inc/xmc4_scu.h **** #define XMC_SCU_INTERRUPT_EVENT_RTCATIM0_UPDATED   SCU_INTERRUPT_SRSTAT_RTC_ATIM0_Msk /**< HIB RTCA
 156:/opt/XMClib/XMC_Peripheral_Library_v2.1.16/XMCLib/inc/xmc4_scu.h **** #define XMC_SCU_INTERRUPT_EVENT_RTCATIM1_UPDATED   SCU_INTERRUPT_SRSTAT_RTC_ATIM1_Msk /**< HIB RTCA
 157:/opt/XMClib/XMC_Peripheral_Library_v2.1.16/XMCLib/inc/xmc4_scu.h **** #define XMC_SCU_INTERRUPT_EVENT_RTCTIM0_UPDATED    SCU_INTERRUPT_SRSTAT_RTC_TIM0_Msk /**< HIB TIM0 
 158:/opt/XMClib/XMC_Peripheral_Library_v2.1.16/XMCLib/inc/xmc4_scu.h **** #define XMC_SCU_INTERRUPT_EVENT_RTCTIM1_UPDATED    SCU_INTERRUPT_SRSTAT_RTC_TIM1_Msk /**< HIB TIM1 
 159:/opt/XMClib/XMC_Peripheral_Library_v2.1.16/XMCLib/inc/xmc4_scu.h **** #define XMC_SCU_INTERRUPT_EVENT_RMX_UPDATED        SCU_INTERRUPT_SRSTAT_RMX_Msk /**< HIB RMX regist
 160:/opt/XMClib/XMC_Peripheral_Library_v2.1.16/XMCLib/inc/xmc4_scu.h **** 
 161:/opt/XMClib/XMC_Peripheral_Library_v2.1.16/XMCLib/inc/xmc4_scu.h **** /**************************************************************************************************
 162:/opt/XMClib/XMC_Peripheral_Library_v2.1.16/XMCLib/inc/xmc4_scu.h ****  * ENUMS
 163:/opt/XMClib/XMC_Peripheral_Library_v2.1.16/XMCLib/inc/xmc4_scu.h ****  **************************************************************************************************
 164:/opt/XMClib/XMC_Peripheral_Library_v2.1.16/XMCLib/inc/xmc4_scu.h **** /**
 165:/opt/XMClib/XMC_Peripheral_Library_v2.1.16/XMCLib/inc/xmc4_scu.h ****  *  Defines Capture/Compare unit timer slice trigger, that enables synchronous start function avail
 166:/opt/XMClib/XMC_Peripheral_Library_v2.1.16/XMCLib/inc/xmc4_scu.h ****  *  CCUCON register. Use type \a XMC_SCU_CCU_TRIGGER_t for accessing these enum parameters.
 167:/opt/XMClib/XMC_Peripheral_Library_v2.1.16/XMCLib/inc/xmc4_scu.h ****  */
 168:/opt/XMClib/XMC_Peripheral_Library_v2.1.16/XMCLib/inc/xmc4_scu.h **** typedef enum XMC_SCU_CCU_TRIGGER
 169:/opt/XMClib/XMC_Peripheral_Library_v2.1.16/XMCLib/inc/xmc4_scu.h **** {
 170:/opt/XMClib/XMC_Peripheral_Library_v2.1.16/XMCLib/inc/xmc4_scu.h **** #if defined(CCU40)
 171:/opt/XMClib/XMC_Peripheral_Library_v2.1.16/XMCLib/inc/xmc4_scu.h ****   XMC_SCU_CCU_TRIGGER_CCU40 = SCU_GENERAL_CCUCON_GSC40_Msk, /**< Trigger mask used for Global Start
 172:/opt/XMClib/XMC_Peripheral_Library_v2.1.16/XMCLib/inc/xmc4_scu.h ****                                                                  CCU40 peripheral. */
 173:/opt/XMClib/XMC_Peripheral_Library_v2.1.16/XMCLib/inc/xmc4_scu.h **** #endif
 174:/opt/XMClib/XMC_Peripheral_Library_v2.1.16/XMCLib/inc/xmc4_scu.h **** #if defined(CCU41)
 175:/opt/XMClib/XMC_Peripheral_Library_v2.1.16/XMCLib/inc/xmc4_scu.h ****   XMC_SCU_CCU_TRIGGER_CCU41 = SCU_GENERAL_CCUCON_GSC41_Msk, /**< Trigger mask used for Global Start
 176:/opt/XMClib/XMC_Peripheral_Library_v2.1.16/XMCLib/inc/xmc4_scu.h ****                                                                  CCU41 peripheral. */
 177:/opt/XMClib/XMC_Peripheral_Library_v2.1.16/XMCLib/inc/xmc4_scu.h **** #endif
 178:/opt/XMClib/XMC_Peripheral_Library_v2.1.16/XMCLib/inc/xmc4_scu.h **** #if defined(CCU42)
 179:/opt/XMClib/XMC_Peripheral_Library_v2.1.16/XMCLib/inc/xmc4_scu.h ****   XMC_SCU_CCU_TRIGGER_CCU42 = SCU_GENERAL_CCUCON_GSC42_Msk, /**< Trigger mask used for Global Start
 180:/opt/XMClib/XMC_Peripheral_Library_v2.1.16/XMCLib/inc/xmc4_scu.h ****                                                                  CCU42 peripheral. */
 181:/opt/XMClib/XMC_Peripheral_Library_v2.1.16/XMCLib/inc/xmc4_scu.h **** #endif
 182:/opt/XMClib/XMC_Peripheral_Library_v2.1.16/XMCLib/inc/xmc4_scu.h **** #if defined(CCU43)
 183:/opt/XMClib/XMC_Peripheral_Library_v2.1.16/XMCLib/inc/xmc4_scu.h ****   XMC_SCU_CCU_TRIGGER_CCU43 = SCU_GENERAL_CCUCON_GSC43_Msk, /**< Trigger mask used for Global Start
 184:/opt/XMClib/XMC_Peripheral_Library_v2.1.16/XMCLib/inc/xmc4_scu.h ****                                                                  CCU43 peripheral. */
 185:/opt/XMClib/XMC_Peripheral_Library_v2.1.16/XMCLib/inc/xmc4_scu.h **** #endif
 186:/opt/XMClib/XMC_Peripheral_Library_v2.1.16/XMCLib/inc/xmc4_scu.h **** #if defined(CCU80)
 187:/opt/XMClib/XMC_Peripheral_Library_v2.1.16/XMCLib/inc/xmc4_scu.h ****   XMC_SCU_CCU_TRIGGER_CCU80 = SCU_GENERAL_CCUCON_GSC80_Msk, /**< Trigger mask used for Global Start
 188:/opt/XMClib/XMC_Peripheral_Library_v2.1.16/XMCLib/inc/xmc4_scu.h ****                                                                  CCU80 peripheral. */
 189:/opt/XMClib/XMC_Peripheral_Library_v2.1.16/XMCLib/inc/xmc4_scu.h **** #endif
 190:/opt/XMClib/XMC_Peripheral_Library_v2.1.16/XMCLib/inc/xmc4_scu.h **** #if defined(CCU81)
 191:/opt/XMClib/XMC_Peripheral_Library_v2.1.16/XMCLib/inc/xmc4_scu.h ****   XMC_SCU_CCU_TRIGGER_CCU81 = SCU_GENERAL_CCUCON_GSC81_Msk /**< Trigger mask used for Global Start 
 192:/opt/XMClib/XMC_Peripheral_Library_v2.1.16/XMCLib/inc/xmc4_scu.h ****                                                                  CCU81 peripheral. */
 193:/opt/XMClib/XMC_Peripheral_Library_v2.1.16/XMCLib/inc/xmc4_scu.h **** #endif
 194:/opt/XMClib/XMC_Peripheral_Library_v2.1.16/XMCLib/inc/xmc4_scu.h **** } XMC_SCU_CCU_TRIGGER_t;
 195:/opt/XMClib/XMC_Peripheral_Library_v2.1.16/XMCLib/inc/xmc4_scu.h **** 
 196:/opt/XMClib/XMC_Peripheral_Library_v2.1.16/XMCLib/inc/xmc4_scu.h **** /**
 197:/opt/XMClib/XMC_Peripheral_Library_v2.1.16/XMCLib/inc/xmc4_scu.h ****  *  Defines enumerations representing the status of trap cause. The cause of the trap gets automati
 198:/opt/XMClib/XMC_Peripheral_Library_v2.1.16/XMCLib/inc/xmc4_scu.h ****  *  the \a TRAPSTAT register and can be checked by user software to determine the state of the syst
 199:/opt/XMClib/XMC_Peripheral_Library_v2.1.16/XMCLib/inc/xmc4_scu.h ****  *  purpose. 
 200:/opt/XMClib/XMC_Peripheral_Library_v2.1.16/XMCLib/inc/xmc4_scu.h ****  *  Use type \a XMC_SCU_TRAP_t for accessing these enum parameters.
 201:/opt/XMClib/XMC_Peripheral_Library_v2.1.16/XMCLib/inc/xmc4_scu.h ****  */
 202:/opt/XMClib/XMC_Peripheral_Library_v2.1.16/XMCLib/inc/xmc4_scu.h **** typedef enum XMC_SCU_TRAP 
 203:/opt/XMClib/XMC_Peripheral_Library_v2.1.16/XMCLib/inc/xmc4_scu.h **** {
 204:/opt/XMClib/XMC_Peripheral_Library_v2.1.16/XMCLib/inc/xmc4_scu.h ****   XMC_SCU_TRAP_OSC_WDG      = SCU_TRAP_TRAPSTAT_SOSCWDGT_Msk, /**< OSC_HP Oscillator Watchdog trap.
 205:/opt/XMClib/XMC_Peripheral_Library_v2.1.16/XMCLib/inc/xmc4_scu.h ****   XMC_SCU_TRAP_VCO_LOCK     = SCU_TRAP_TRAPSTAT_SVCOLCKT_Msk, /**< PLL loss of lock trap. */
 206:/opt/XMClib/XMC_Peripheral_Library_v2.1.16/XMCLib/inc/xmc4_scu.h ****   XMC_SCU_TRAP_USB_VCO_LOCK = SCU_TRAP_TRAPSTAT_UVCOLCKT_Msk, /**< USB PLL loss of lock trap. */ 
 207:/opt/XMClib/XMC_Peripheral_Library_v2.1.16/XMCLib/inc/xmc4_scu.h ****   XMC_SCU_TRAP_PARITY_ERROR = SCU_TRAP_TRAPSTAT_PET_Msk,      /**< Memory Parity error trap. */  
 208:/opt/XMClib/XMC_Peripheral_Library_v2.1.16/XMCLib/inc/xmc4_scu.h ****   XMC_SCU_TRAP_BROWNOUT     = SCU_TRAP_TRAPSTAT_BRWNT_Msk,    /**< Brownout trap. */ 
 209:/opt/XMClib/XMC_Peripheral_Library_v2.1.16/XMCLib/inc/xmc4_scu.h ****   XMC_SCU_TRAP_ULP_WDG      = SCU_TRAP_TRAPSTAT_ULPWDGT_Msk,  /**< Unstable 32KHz clock trap. */ 
 210:/opt/XMClib/XMC_Peripheral_Library_v2.1.16/XMCLib/inc/xmc4_scu.h ****   XMC_SCU_TRAP_PER_BRIDGE0  = SCU_TRAP_TRAPSTAT_BWERR0T_Msk,  /**< Bad memory access of peripherals
 211:/opt/XMClib/XMC_Peripheral_Library_v2.1.16/XMCLib/inc/xmc4_scu.h ****   XMC_SCU_TRAP_PER_BRIDGE1  = SCU_TRAP_TRAPSTAT_BWERR1T_Msk,  /**< Bad memory access of peripherals
 212:/opt/XMClib/XMC_Peripheral_Library_v2.1.16/XMCLib/inc/xmc4_scu.h **** #if defined(SCU_TRAP_TRAPSTAT_TEMPHIT_Msk)
 213:/opt/XMClib/XMC_Peripheral_Library_v2.1.16/XMCLib/inc/xmc4_scu.h ****   XMC_SCU_TRAP_DIETEMP_HIGH = SCU_TRAP_TRAPSTAT_TEMPHIT_Msk,  /**< Die temperature higher than expe
 214:/opt/XMClib/XMC_Peripheral_Library_v2.1.16/XMCLib/inc/xmc4_scu.h **** #endif
 215:/opt/XMClib/XMC_Peripheral_Library_v2.1.16/XMCLib/inc/xmc4_scu.h **** #if defined(SCU_TRAP_TRAPSTAT_TEMPLOT_Msk)
 216:/opt/XMClib/XMC_Peripheral_Library_v2.1.16/XMCLib/inc/xmc4_scu.h ****   XMC_SCU_TRAP_DIETEMP_LOW  = SCU_TRAP_TRAPSTAT_TEMPLOT_Msk,  /**< Die temperature lower than expec
 217:/opt/XMClib/XMC_Peripheral_Library_v2.1.16/XMCLib/inc/xmc4_scu.h **** #endif
 218:/opt/XMClib/XMC_Peripheral_Library_v2.1.16/XMCLib/inc/xmc4_scu.h **** #if defined(ECAT0)
 219:/opt/XMClib/XMC_Peripheral_Library_v2.1.16/XMCLib/inc/xmc4_scu.h ****   XMC_SCU_TRAP_ECAT_RESET = SCU_TRAP_TRAPSTAT_ECAT0RST_Msk, /**< EtherCat Reset */ 
 220:/opt/XMClib/XMC_Peripheral_Library_v2.1.16/XMCLib/inc/xmc4_scu.h **** #endif
 221:/opt/XMClib/XMC_Peripheral_Library_v2.1.16/XMCLib/inc/xmc4_scu.h **** } XMC_SCU_TRAP_t;
 222:/opt/XMClib/XMC_Peripheral_Library_v2.1.16/XMCLib/inc/xmc4_scu.h **** 
 223:/opt/XMClib/XMC_Peripheral_Library_v2.1.16/XMCLib/inc/xmc4_scu.h **** /**
 224:/opt/XMClib/XMC_Peripheral_Library_v2.1.16/XMCLib/inc/xmc4_scu.h ****  *  Defines enumerations for different parity event generating modules that in turn generate a trap
 225:/opt/XMClib/XMC_Peripheral_Library_v2.1.16/XMCLib/inc/xmc4_scu.h ****  *  Parity can be enabled with \a PETE register in order to get the trap flag reflected in \a TRAPR
 226:/opt/XMClib/XMC_Peripheral_Library_v2.1.16/XMCLib/inc/xmc4_scu.h ****  *  configure parity error trap generation mechanism bits of \a PETE register.
 227:/opt/XMClib/XMC_Peripheral_Library_v2.1.16/XMCLib/inc/xmc4_scu.h ****  *  All the enum items are tabulated as per bits present in \a PETE register.
 228:/opt/XMClib/XMC_Peripheral_Library_v2.1.16/XMCLib/inc/xmc4_scu.h ****  *  Use type \a XMC_SCU_PARITY_t for accessing these enum parameters.
 229:/opt/XMClib/XMC_Peripheral_Library_v2.1.16/XMCLib/inc/xmc4_scu.h ****  */
 230:/opt/XMClib/XMC_Peripheral_Library_v2.1.16/XMCLib/inc/xmc4_scu.h **** typedef enum XMC_SCU_PARITY
 231:/opt/XMClib/XMC_Peripheral_Library_v2.1.16/XMCLib/inc/xmc4_scu.h **** {
 232:/opt/XMClib/XMC_Peripheral_Library_v2.1.16/XMCLib/inc/xmc4_scu.h ****   XMC_SCU_PARITY_PSRAM_MEM  = SCU_PARITY_PEEN_PEENPS_Msk,   /**< Program SRAM parity error trap. */
 233:/opt/XMClib/XMC_Peripheral_Library_v2.1.16/XMCLib/inc/xmc4_scu.h ****   XMC_SCU_PARITY_DSRAM1_MEM = SCU_PARITY_PEEN_PEENDS1_Msk,  /**< Data SRAM-1 parity error trap. */ 
 234:/opt/XMClib/XMC_Peripheral_Library_v2.1.16/XMCLib/inc/xmc4_scu.h **** #if defined(XMC_SCU_PARITY_DSRAM2_MEM)
 235:/opt/XMClib/XMC_Peripheral_Library_v2.1.16/XMCLib/inc/xmc4_scu.h ****   XMC_SCU_PARITY_DSRAM2_MEM = SCU_PARITY_PEEN_PEENDS2_Msk,  /**< Data SRAM-2 parity error trap. */ 
 236:/opt/XMClib/XMC_Peripheral_Library_v2.1.16/XMCLib/inc/xmc4_scu.h **** #endif
 237:/opt/XMClib/XMC_Peripheral_Library_v2.1.16/XMCLib/inc/xmc4_scu.h ****   XMC_SCU_PARITY_USIC0_MEM  = SCU_PARITY_PEEN_PEENU0_Msk,   /**< USIC0 memory parity error trap. */
 238:/opt/XMClib/XMC_Peripheral_Library_v2.1.16/XMCLib/inc/xmc4_scu.h **** #if defined(XMC_SCU_PARITY_USIC1_MEM)
 239:/opt/XMClib/XMC_Peripheral_Library_v2.1.16/XMCLib/inc/xmc4_scu.h ****   XMC_SCU_PARITY_USIC1_MEM  = SCU_PARITY_PEEN_PEENU1_Msk,   /**< USIC1 memory parity error trap. */
 240:/opt/XMClib/XMC_Peripheral_Library_v2.1.16/XMCLib/inc/xmc4_scu.h **** #endif
 241:/opt/XMClib/XMC_Peripheral_Library_v2.1.16/XMCLib/inc/xmc4_scu.h **** #if defined(XMC_SCU_PARITY_USIC2_MEM)
 242:/opt/XMClib/XMC_Peripheral_Library_v2.1.16/XMCLib/inc/xmc4_scu.h ****   XMC_SCU_PARITY_USIC2_MEM  = SCU_PARITY_PEEN_PEENU2_Msk,   /**< USIC2 memory parity error trap. */
 243:/opt/XMClib/XMC_Peripheral_Library_v2.1.16/XMCLib/inc/xmc4_scu.h **** #endif
 244:/opt/XMClib/XMC_Peripheral_Library_v2.1.16/XMCLib/inc/xmc4_scu.h ****   XMC_SCU_PARITY_MCAN_MEM   = SCU_PARITY_PEEN_PEENMC_Msk,   /**< CAN memory parity error trap. */
 245:/opt/XMClib/XMC_Peripheral_Library_v2.1.16/XMCLib/inc/xmc4_scu.h ****   XMC_SCU_PARITY_PMU_MEM    = SCU_PARITY_PEEN_PEENPPRF_Msk, /**< PMU Prefetch memory parity error t
 246:/opt/XMClib/XMC_Peripheral_Library_v2.1.16/XMCLib/inc/xmc4_scu.h ****   XMC_SCU_PARITY_USB_MEM    = SCU_PARITY_PEEN_PEENUSB_Msk,  /**< USB memory parity error trap. */ 
 247:/opt/XMClib/XMC_Peripheral_Library_v2.1.16/XMCLib/inc/xmc4_scu.h **** #if defined(SCU_PARITY_PEEN_PEENETH0TX_Msk)
 248:/opt/XMClib/XMC_Peripheral_Library_v2.1.16/XMCLib/inc/xmc4_scu.h ****   XMC_SCU_PARITY_ETH_TXMEM  = SCU_PARITY_PEEN_PEENETH0TX_Msk, /**< Ethernet transmit memory parity 
 249:/opt/XMClib/XMC_Peripheral_Library_v2.1.16/XMCLib/inc/xmc4_scu.h **** #endif
 250:/opt/XMClib/XMC_Peripheral_Library_v2.1.16/XMCLib/inc/xmc4_scu.h **** #if defined(SCU_PARITY_PEEN_PEENETH0RX_Msk)
 251:/opt/XMClib/XMC_Peripheral_Library_v2.1.16/XMCLib/inc/xmc4_scu.h ****   XMC_SCU_PARITY_ETH_RXMEM  = SCU_PARITY_PEEN_PEENETH0RX_Msk, /**< Ethernet receive memory parity e
 252:/opt/XMClib/XMC_Peripheral_Library_v2.1.16/XMCLib/inc/xmc4_scu.h **** #endif
 253:/opt/XMClib/XMC_Peripheral_Library_v2.1.16/XMCLib/inc/xmc4_scu.h **** #if defined(SCU_PARITY_PEEN_PEENSD0_Msk)
 254:/opt/XMClib/XMC_Peripheral_Library_v2.1.16/XMCLib/inc/xmc4_scu.h ****   XMC_SCU_PARITY_SDMMC_MEM0 = SCU_PARITY_PEEN_PEENSD0_Msk, /**< SDMMC Memory-0 parity error trap. *
 255:/opt/XMClib/XMC_Peripheral_Library_v2.1.16/XMCLib/inc/xmc4_scu.h **** #endif
 256:/opt/XMClib/XMC_Peripheral_Library_v2.1.16/XMCLib/inc/xmc4_scu.h **** #if defined(SCU_PARITY_PEEN_PEENSD1_Msk)
 257:/opt/XMClib/XMC_Peripheral_Library_v2.1.16/XMCLib/inc/xmc4_scu.h ****   XMC_SCU_PARITY_SDMMC_MEM1 = SCU_PARITY_PEEN_PEENSD1_Msk, /**< SDMMC Memory-1 parity error trap. *
 258:/opt/XMClib/XMC_Peripheral_Library_v2.1.16/XMCLib/inc/xmc4_scu.h **** #endif
 259:/opt/XMClib/XMC_Peripheral_Library_v2.1.16/XMCLib/inc/xmc4_scu.h **** } XMC_SCU_PARITY_t;
 260:/opt/XMClib/XMC_Peripheral_Library_v2.1.16/XMCLib/inc/xmc4_scu.h **** 
 261:/opt/XMClib/XMC_Peripheral_Library_v2.1.16/XMCLib/inc/xmc4_scu.h **** /**
 262:/opt/XMClib/XMC_Peripheral_Library_v2.1.16/XMCLib/inc/xmc4_scu.h ****  *  Defines the different causes for last reset. The cause of the last reset gets automatically sto
 263:/opt/XMClib/XMC_Peripheral_Library_v2.1.16/XMCLib/inc/xmc4_scu.h ****  *  the \a SCU_RSTSTAT register and can be checked by user software to determine the state of the s
 264:/opt/XMClib/XMC_Peripheral_Library_v2.1.16/XMCLib/inc/xmc4_scu.h ****  *  purpose. All the enum items are tabulated as per bits present in \a SCU_RSTSTAT register.
 265:/opt/XMClib/XMC_Peripheral_Library_v2.1.16/XMCLib/inc/xmc4_scu.h ****  *  Use type \a XMC_SCU_RESET_REASON_t for accessing these enum parameters.
 266:/opt/XMClib/XMC_Peripheral_Library_v2.1.16/XMCLib/inc/xmc4_scu.h ****  */
 267:/opt/XMClib/XMC_Peripheral_Library_v2.1.16/XMCLib/inc/xmc4_scu.h **** typedef enum XMC_SCU_RESET_REASON
 268:/opt/XMClib/XMC_Peripheral_Library_v2.1.16/XMCLib/inc/xmc4_scu.h **** {
 269:/opt/XMClib/XMC_Peripheral_Library_v2.1.16/XMCLib/inc/xmc4_scu.h ****   XMC_SCU_RESET_REASON_PORST        = (1UL << SCU_RESET_RSTSTAT_RSTSTAT_Pos), /**< Reset due to Pow
 270:/opt/XMClib/XMC_Peripheral_Library_v2.1.16/XMCLib/inc/xmc4_scu.h ****   XMC_SCU_RESET_REASON_SWD          = (2UL << SCU_RESET_RSTSTAT_RSTSTAT_Pos), /**< Reset due to Sup
 271:/opt/XMClib/XMC_Peripheral_Library_v2.1.16/XMCLib/inc/xmc4_scu.h ****   XMC_SCU_RESET_REASON_PV           = (4UL << SCU_RESET_RSTSTAT_RSTSTAT_Pos), /**< Reset due to Pow
 272:/opt/XMClib/XMC_Peripheral_Library_v2.1.16/XMCLib/inc/xmc4_scu.h ****   XMC_SCU_RESET_REASON_SW           = (8UL << SCU_RESET_RSTSTAT_RSTSTAT_Pos), /**< Reset due to Sof
 273:/opt/XMClib/XMC_Peripheral_Library_v2.1.16/XMCLib/inc/xmc4_scu.h ****   XMC_SCU_RESET_REASON_LOCKUP       = (16UL << SCU_RESET_RSTSTAT_RSTSTAT_Pos), /**< Reset due to re
 274:/opt/XMClib/XMC_Peripheral_Library_v2.1.16/XMCLib/inc/xmc4_scu.h ****   XMC_SCU_RESET_REASON_WATCHDOG     = (32UL << SCU_RESET_RSTSTAT_RSTSTAT_Pos), /**< Reset due to Wa
 275:/opt/XMClib/XMC_Peripheral_Library_v2.1.16/XMCLib/inc/xmc4_scu.h ****   XMC_SCU_RESET_REASON_PARITY_ERROR = (128UL << SCU_RESET_RSTSTAT_RSTSTAT_Pos), /**< Reset due to r
 276:/opt/XMClib/XMC_Peripheral_Library_v2.1.16/XMCLib/inc/xmc4_scu.h **** } XMC_SCU_RESET_REASON_t;
 277:/opt/XMClib/XMC_Peripheral_Library_v2.1.16/XMCLib/inc/xmc4_scu.h **** 
 278:/opt/XMClib/XMC_Peripheral_Library_v2.1.16/XMCLib/inc/xmc4_scu.h **** /**
 279:/opt/XMClib/XMC_Peripheral_Library_v2.1.16/XMCLib/inc/xmc4_scu.h ****  *  Defines enumerations for events which can lead to interrupt. These enumeration values represent
 280:/opt/XMClib/XMC_Peripheral_Library_v2.1.16/XMCLib/inc/xmc4_scu.h ****  * status of one of the bits in \a SRSTAT register. 
 281:/opt/XMClib/XMC_Peripheral_Library_v2.1.16/XMCLib/inc/xmc4_scu.h ****  *  Use type \a XMC_SCU_INTERRUPT_EVENT_t for accessing these enum parameters.
 282:/opt/XMClib/XMC_Peripheral_Library_v2.1.16/XMCLib/inc/xmc4_scu.h ****  */
 283:/opt/XMClib/XMC_Peripheral_Library_v2.1.16/XMCLib/inc/xmc4_scu.h **** typedef uint32_t XMC_SCU_INTERRUPT_EVENT_t;
 284:/opt/XMClib/XMC_Peripheral_Library_v2.1.16/XMCLib/inc/xmc4_scu.h **** 
 285:/opt/XMClib/XMC_Peripheral_Library_v2.1.16/XMCLib/inc/xmc4_scu.h ****  
 286:/opt/XMClib/XMC_Peripheral_Library_v2.1.16/XMCLib/inc/xmc4_scu.h **** /**
 287:/opt/XMClib/XMC_Peripheral_Library_v2.1.16/XMCLib/inc/xmc4_scu.h ****  *  Defines enumeration for the events that can generate non maskable interrupt(NMI).
 288:/opt/XMClib/XMC_Peripheral_Library_v2.1.16/XMCLib/inc/xmc4_scu.h ****  *  The NMI generation can be enabled with \a NMIREQEN register. The event will be reflected in \a 
 289:/opt/XMClib/XMC_Peripheral_Library_v2.1.16/XMCLib/inc/xmc4_scu.h ****  *  mirrored in the TRAPSTAT register. These enums can be used to configure NMI request generation 
 290:/opt/XMClib/XMC_Peripheral_Library_v2.1.16/XMCLib/inc/xmc4_scu.h ****  *  NMIREQEN register.  Once configured, these events can generate non maskable interrupt.
 291:/opt/XMClib/XMC_Peripheral_Library_v2.1.16/XMCLib/inc/xmc4_scu.h ****  *  All the enum items are tabulated as per bits present in \a NMIREQEN register.
 292:/opt/XMClib/XMC_Peripheral_Library_v2.1.16/XMCLib/inc/xmc4_scu.h ****  *  Use type \a XMC_SCU_NMIREQ_t for accessing these enum parameters.
 293:/opt/XMClib/XMC_Peripheral_Library_v2.1.16/XMCLib/inc/xmc4_scu.h ****  */
 294:/opt/XMClib/XMC_Peripheral_Library_v2.1.16/XMCLib/inc/xmc4_scu.h **** typedef enum XMC_SCU_NMIREQ
 295:/opt/XMClib/XMC_Peripheral_Library_v2.1.16/XMCLib/inc/xmc4_scu.h **** {
 296:/opt/XMClib/XMC_Peripheral_Library_v2.1.16/XMCLib/inc/xmc4_scu.h ****   XMC_SCU_NMIREQ_WDT_WARN = SCU_INTERRUPT_NMIREQEN_PRWARN_Msk, /**< Watchdog timer Pre-Warning even
 297:/opt/XMClib/XMC_Peripheral_Library_v2.1.16/XMCLib/inc/xmc4_scu.h ****   XMC_SCU_NMIREQ_RTC_PI   = SCU_INTERRUPT_NMIREQEN_PI_Msk,     /**< RTC Periodic event */ 
 298:/opt/XMClib/XMC_Peripheral_Library_v2.1.16/XMCLib/inc/xmc4_scu.h ****   XMC_SCU_NMIREQ_RTC_AI   = SCU_INTERRUPT_NMIREQEN_AI_Msk,     /**< RTC Alarm event */ 
 299:/opt/XMClib/XMC_Peripheral_Library_v2.1.16/XMCLib/inc/xmc4_scu.h ****   XMC_SCU_NMIREQ_ERU0_0   = SCU_INTERRUPT_NMIREQEN_ERU00_Msk,  /**< Channel 0 event of ERU0 */  
 300:/opt/XMClib/XMC_Peripheral_Library_v2.1.16/XMCLib/inc/xmc4_scu.h ****   XMC_SCU_NMIREQ_ERU0_1   = SCU_INTERRUPT_NMIREQEN_ERU01_Msk,  /**< Channel 1 event of ERU0 */ 
 301:/opt/XMClib/XMC_Peripheral_Library_v2.1.16/XMCLib/inc/xmc4_scu.h ****   XMC_SCU_NMIREQ_ERU0_2   = SCU_INTERRUPT_NMIREQEN_ERU02_Msk,  /**< Channel 2 event of ERU0 */ 
 302:/opt/XMClib/XMC_Peripheral_Library_v2.1.16/XMCLib/inc/xmc4_scu.h ****   XMC_SCU_NMIREQ_ERU0_3   = SCU_INTERRUPT_NMIREQEN_ERU03_Msk   /**< Channel 3 event of ERU0 */ 
 303:/opt/XMClib/XMC_Peripheral_Library_v2.1.16/XMCLib/inc/xmc4_scu.h **** } XMC_SCU_NMIREQ_t;
 304:/opt/XMClib/XMC_Peripheral_Library_v2.1.16/XMCLib/inc/xmc4_scu.h ****   
 305:/opt/XMClib/XMC_Peripheral_Library_v2.1.16/XMCLib/inc/xmc4_scu.h **** 
 306:/opt/XMClib/XMC_Peripheral_Library_v2.1.16/XMCLib/inc/xmc4_scu.h **** /**
 307:/opt/XMClib/XMC_Peripheral_Library_v2.1.16/XMCLib/inc/xmc4_scu.h ****  *  Defines enumeration representing different peripheral reset bits in the \a PRSTAT registers.
 308:/opt/XMClib/XMC_Peripheral_Library_v2.1.16/XMCLib/inc/xmc4_scu.h ****  *  All the enum items are tabulated as per bits present in \a PRSTAT0,  \a PRSTAT1,  \a PRSTAT2,
 309:/opt/XMClib/XMC_Peripheral_Library_v2.1.16/XMCLib/inc/xmc4_scu.h ****  *  \a PRSTAT3 registers. Use type \a XMC_SCU_PERIPHERAL_RESET_t for accessing these enum parameter
 310:/opt/XMClib/XMC_Peripheral_Library_v2.1.16/XMCLib/inc/xmc4_scu.h ****  *  Note: Release of reset should be prevented when the peripheral clock is gated in cases where ke
 311:/opt/XMClib/XMC_Peripheral_Library_v2.1.16/XMCLib/inc/xmc4_scu.h ****  *  clock and bus interface clocks are shared, in order to avoid system hang-up.
 312:/opt/XMClib/XMC_Peripheral_Library_v2.1.16/XMCLib/inc/xmc4_scu.h ****  */
 313:/opt/XMClib/XMC_Peripheral_Library_v2.1.16/XMCLib/inc/xmc4_scu.h **** typedef enum XMC_SCU_PERIPHERAL_RESET
 314:/opt/XMClib/XMC_Peripheral_Library_v2.1.16/XMCLib/inc/xmc4_scu.h **** {
 315:/opt/XMClib/XMC_Peripheral_Library_v2.1.16/XMCLib/inc/xmc4_scu.h ****   XMC_SCU_PERIPHERAL_RESET_VADC   = SCU_RESET_PRSTAT0_VADCRS_Msk,   /**< VADC reset. */ 
 316:/opt/XMClib/XMC_Peripheral_Library_v2.1.16/XMCLib/inc/xmc4_scu.h **** #if defined(DSD)
 317:/opt/XMClib/XMC_Peripheral_Library_v2.1.16/XMCLib/inc/xmc4_scu.h ****   XMC_SCU_PERIPHERAL_RESET_DSD    = SCU_RESET_PRSTAT0_DSDRS_Msk,    /**< DSD reset. */
 318:/opt/XMClib/XMC_Peripheral_Library_v2.1.16/XMCLib/inc/xmc4_scu.h **** #endif
 319:/opt/XMClib/XMC_Peripheral_Library_v2.1.16/XMCLib/inc/xmc4_scu.h ****   XMC_SCU_PERIPHERAL_RESET_CCU40  = SCU_RESET_PRSTAT0_CCU40RS_Msk,  /**< CCU40 reset. */
 320:/opt/XMClib/XMC_Peripheral_Library_v2.1.16/XMCLib/inc/xmc4_scu.h **** #if defined(CCU41)
 321:/opt/XMClib/XMC_Peripheral_Library_v2.1.16/XMCLib/inc/xmc4_scu.h ****   XMC_SCU_PERIPHERAL_RESET_CCU41  = SCU_RESET_PRSTAT0_CCU41RS_Msk,  /**< CCU41 reset. */
 322:/opt/XMClib/XMC_Peripheral_Library_v2.1.16/XMCLib/inc/xmc4_scu.h **** #endif  
 323:/opt/XMClib/XMC_Peripheral_Library_v2.1.16/XMCLib/inc/xmc4_scu.h **** #if defined(CCU42)
 324:/opt/XMClib/XMC_Peripheral_Library_v2.1.16/XMCLib/inc/xmc4_scu.h ****   XMC_SCU_PERIPHERAL_RESET_CCU42  = SCU_RESET_PRSTAT0_CCU42RS_Msk,  /**< CCU42 reset. */
 325:/opt/XMClib/XMC_Peripheral_Library_v2.1.16/XMCLib/inc/xmc4_scu.h **** #endif
 326:/opt/XMClib/XMC_Peripheral_Library_v2.1.16/XMCLib/inc/xmc4_scu.h **** #if defined(CCU80)
 327:/opt/XMClib/XMC_Peripheral_Library_v2.1.16/XMCLib/inc/xmc4_scu.h ****   XMC_SCU_PERIPHERAL_RESET_CCU80  = SCU_RESET_PRSTAT0_CCU80RS_Msk,  /**< CCU80 reset. */
 328:/opt/XMClib/XMC_Peripheral_Library_v2.1.16/XMCLib/inc/xmc4_scu.h **** #endif  
 329:/opt/XMClib/XMC_Peripheral_Library_v2.1.16/XMCLib/inc/xmc4_scu.h **** #if defined(CCU81)
 330:/opt/XMClib/XMC_Peripheral_Library_v2.1.16/XMCLib/inc/xmc4_scu.h ****   XMC_SCU_PERIPHERAL_RESET_CCU81  = SCU_RESET_PRSTAT0_CCU81RS_Msk,  /**< CCU81 reset. */
 331:/opt/XMClib/XMC_Peripheral_Library_v2.1.16/XMCLib/inc/xmc4_scu.h **** #endif
 332:/opt/XMClib/XMC_Peripheral_Library_v2.1.16/XMCLib/inc/xmc4_scu.h **** #if defined(POSIF0)
 333:/opt/XMClib/XMC_Peripheral_Library_v2.1.16/XMCLib/inc/xmc4_scu.h ****   XMC_SCU_PERIPHERAL_RESET_POSIF0 = SCU_RESET_PRSTAT0_POSIF0RS_Msk, /**< POSIF0 reset. */
 334:/opt/XMClib/XMC_Peripheral_Library_v2.1.16/XMCLib/inc/xmc4_scu.h **** #endif  
 335:/opt/XMClib/XMC_Peripheral_Library_v2.1.16/XMCLib/inc/xmc4_scu.h **** #if defined(POSIF1)
 336:/opt/XMClib/XMC_Peripheral_Library_v2.1.16/XMCLib/inc/xmc4_scu.h ****   XMC_SCU_PERIPHERAL_RESET_POSIF1 = SCU_RESET_PRSTAT0_POSIF1RS_Msk, /**< POSIF1 reset.*/
 337:/opt/XMClib/XMC_Peripheral_Library_v2.1.16/XMCLib/inc/xmc4_scu.h **** #endif
 338:/opt/XMClib/XMC_Peripheral_Library_v2.1.16/XMCLib/inc/xmc4_scu.h ****   XMC_SCU_PERIPHERAL_RESET_USIC0  = SCU_RESET_PRSTAT0_USIC0RS_Msk,  /**< USIC0 reset. */
 339:/opt/XMClib/XMC_Peripheral_Library_v2.1.16/XMCLib/inc/xmc4_scu.h ****   XMC_SCU_PERIPHERAL_RESET_ERU1   = SCU_RESET_PRSTAT0_ERU1RS_Msk,   /**< ERU1 reset. */
 340:/opt/XMClib/XMC_Peripheral_Library_v2.1.16/XMCLib/inc/xmc4_scu.h **** #if defined(HRPWM0)
 341:/opt/XMClib/XMC_Peripheral_Library_v2.1.16/XMCLib/inc/xmc4_scu.h ****   XMC_SCU_PERIPHERAL_RESET_HRPWM0 = SCU_RESET_PRSTAT0_HRPWM0RS_Msk,  /**< HRPWM0 reset. */
 342:/opt/XMClib/XMC_Peripheral_Library_v2.1.16/XMCLib/inc/xmc4_scu.h **** #endif
 343:/opt/XMClib/XMC_Peripheral_Library_v2.1.16/XMCLib/inc/xmc4_scu.h **** #if defined(CCU43)
 344:/opt/XMClib/XMC_Peripheral_Library_v2.1.16/XMCLib/inc/xmc4_scu.h ****   XMC_SCU_PERIPHERAL_RESET_CCU43  = (SCU_RESET_PRSTAT1_CCU43RS_Msk | 0x10000000UL),   /**< CCU43 re
 345:/opt/XMClib/XMC_Peripheral_Library_v2.1.16/XMCLib/inc/xmc4_scu.h **** #endif
 346:/opt/XMClib/XMC_Peripheral_Library_v2.1.16/XMCLib/inc/xmc4_scu.h **** #if defined(LEDTS0)
 347:/opt/XMClib/XMC_Peripheral_Library_v2.1.16/XMCLib/inc/xmc4_scu.h ****   XMC_SCU_PERIPHERAL_RESET_LEDTS0 = (SCU_RESET_PRSTAT1_LEDTSCU0RS_Msk | 0x10000000UL), /**< LEDTS0 
 348:/opt/XMClib/XMC_Peripheral_Library_v2.1.16/XMCLib/inc/xmc4_scu.h **** #endif  
 349:/opt/XMClib/XMC_Peripheral_Library_v2.1.16/XMCLib/inc/xmc4_scu.h **** #if defined(CAN)
 350:/opt/XMClib/XMC_Peripheral_Library_v2.1.16/XMCLib/inc/xmc4_scu.h ****   XMC_SCU_PERIPHERAL_RESET_MCAN   = (SCU_RESET_PRSTAT1_MCAN0RS_Msk | 0x10000000UL), /**< MCAN reset
 351:/opt/XMClib/XMC_Peripheral_Library_v2.1.16/XMCLib/inc/xmc4_scu.h **** #endif  
 352:/opt/XMClib/XMC_Peripheral_Library_v2.1.16/XMCLib/inc/xmc4_scu.h **** #if defined(DAC)  
 353:/opt/XMClib/XMC_Peripheral_Library_v2.1.16/XMCLib/inc/xmc4_scu.h ****   XMC_SCU_PERIPHERAL_RESET_DAC    = (SCU_RESET_PRSTAT1_DACRS_Msk | 0x10000000UL),    /**< DAC reset
 354:/opt/XMClib/XMC_Peripheral_Library_v2.1.16/XMCLib/inc/xmc4_scu.h **** #endif  
 355:/opt/XMClib/XMC_Peripheral_Library_v2.1.16/XMCLib/inc/xmc4_scu.h **** #if defined(SDMMC)
 356:/opt/XMClib/XMC_Peripheral_Library_v2.1.16/XMCLib/inc/xmc4_scu.h ****   XMC_SCU_PERIPHERAL_RESET_SDMMC  = (SCU_RESET_PRSTAT1_MMCIRS_Msk | 0x10000000UL),     /**< SDMMC r
 357:/opt/XMClib/XMC_Peripheral_Library_v2.1.16/XMCLib/inc/xmc4_scu.h **** #endif
 358:/opt/XMClib/XMC_Peripheral_Library_v2.1.16/XMCLib/inc/xmc4_scu.h **** #if defined(USIC1)
 359:/opt/XMClib/XMC_Peripheral_Library_v2.1.16/XMCLib/inc/xmc4_scu.h ****   XMC_SCU_PERIPHERAL_RESET_USIC1  = (SCU_RESET_PRSTAT1_USIC1RS_Msk | 0x10000000UL),    /**< USIC1 r
 360:/opt/XMClib/XMC_Peripheral_Library_v2.1.16/XMCLib/inc/xmc4_scu.h **** #endif  
 361:/opt/XMClib/XMC_Peripheral_Library_v2.1.16/XMCLib/inc/xmc4_scu.h **** #if defined(USIC2)
 362:/opt/XMClib/XMC_Peripheral_Library_v2.1.16/XMCLib/inc/xmc4_scu.h ****   XMC_SCU_PERIPHERAL_RESET_USIC2  = (SCU_RESET_PRSTAT1_USIC2RS_Msk | 0x10000000UL),    /**< USIC2 r
 363:/opt/XMClib/XMC_Peripheral_Library_v2.1.16/XMCLib/inc/xmc4_scu.h **** #endif
 364:/opt/XMClib/XMC_Peripheral_Library_v2.1.16/XMCLib/inc/xmc4_scu.h ****   XMC_SCU_PERIPHERAL_RESET_PORTS  = (SCU_RESET_PRSTAT1_PPORTSRS_Msk | 0x10000000UL),   /**< PORTS r
 365:/opt/XMClib/XMC_Peripheral_Library_v2.1.16/XMCLib/inc/xmc4_scu.h ****   XMC_SCU_PERIPHERAL_RESET_WDT    = (SCU_RESET_PRSTAT2_WDTRS_Msk | 0x20000000UL),      /**< WDT res
 366:/opt/XMClib/XMC_Peripheral_Library_v2.1.16/XMCLib/inc/xmc4_scu.h **** #if defined(ETH0)
 367:/opt/XMClib/XMC_Peripheral_Library_v2.1.16/XMCLib/inc/xmc4_scu.h ****   XMC_SCU_PERIPHERAL_RESET_ETH0   = (SCU_RESET_PRSTAT2_ETH0RS_Msk | 0x20000000UL),     /**< ETH0 re
 368:/opt/XMClib/XMC_Peripheral_Library_v2.1.16/XMCLib/inc/xmc4_scu.h **** #endif
 369:/opt/XMClib/XMC_Peripheral_Library_v2.1.16/XMCLib/inc/xmc4_scu.h ****   XMC_SCU_PERIPHERAL_RESET_GPDMA0 = (SCU_RESET_PRSTAT2_DMA0RS_Msk | 0x20000000UL),     /**< DMA0 re
 370:/opt/XMClib/XMC_Peripheral_Library_v2.1.16/XMCLib/inc/xmc4_scu.h **** #if defined(GPDMA1)
 371:/opt/XMClib/XMC_Peripheral_Library_v2.1.16/XMCLib/inc/xmc4_scu.h ****   XMC_SCU_PERIPHERAL_RESET_GPDMA1 = (SCU_RESET_PRSTAT2_DMA1RS_Msk | 0x20000000UL),     /**< DMA1 re
 372:/opt/XMClib/XMC_Peripheral_Library_v2.1.16/XMCLib/inc/xmc4_scu.h **** #endif
 373:/opt/XMClib/XMC_Peripheral_Library_v2.1.16/XMCLib/inc/xmc4_scu.h **** #if defined(FCE)
 374:/opt/XMClib/XMC_Peripheral_Library_v2.1.16/XMCLib/inc/xmc4_scu.h ****   XMC_SCU_PERIPHERAL_RESET_FCE    = (SCU_RESET_PRSTAT2_FCERS_Msk | 0x20000000UL),      /**< FCE res
 375:/opt/XMClib/XMC_Peripheral_Library_v2.1.16/XMCLib/inc/xmc4_scu.h **** #endif
 376:/opt/XMClib/XMC_Peripheral_Library_v2.1.16/XMCLib/inc/xmc4_scu.h **** #if defined(USB0)  
 377:/opt/XMClib/XMC_Peripheral_Library_v2.1.16/XMCLib/inc/xmc4_scu.h ****   XMC_SCU_PERIPHERAL_RESET_USB0   = (SCU_RESET_PRSTAT2_USBRS_Msk | 0x20000000UL),      /**< USB0 re
 378:/opt/XMClib/XMC_Peripheral_Library_v2.1.16/XMCLib/inc/xmc4_scu.h **** #endif  
 379:/opt/XMClib/XMC_Peripheral_Library_v2.1.16/XMCLib/inc/xmc4_scu.h **** #if defined(ECAT0)  
 380:/opt/XMClib/XMC_Peripheral_Library_v2.1.16/XMCLib/inc/xmc4_scu.h ****   XMC_SCU_PERIPHERAL_RESET_ECAT0  = (SCU_RESET_PRSTAT2_ECAT0RS_Msk | 0x20000000UL),      /**< ECAT0
 381:/opt/XMClib/XMC_Peripheral_Library_v2.1.16/XMCLib/inc/xmc4_scu.h **** #endif  
 382:/opt/XMClib/XMC_Peripheral_Library_v2.1.16/XMCLib/inc/xmc4_scu.h **** #if defined(EBU)
 383:/opt/XMClib/XMC_Peripheral_Library_v2.1.16/XMCLib/inc/xmc4_scu.h ****   XMC_SCU_PERIPHERAL_RESET_EBU    = (SCU_RESET_PRSTAT3_EBURS_Msk | 0x30000000UL)       /**< EBU res
 384:/opt/XMClib/XMC_Peripheral_Library_v2.1.16/XMCLib/inc/xmc4_scu.h **** #endif
 385:/opt/XMClib/XMC_Peripheral_Library_v2.1.16/XMCLib/inc/xmc4_scu.h **** } XMC_SCU_PERIPHERAL_RESET_t;
 386:/opt/XMClib/XMC_Peripheral_Library_v2.1.16/XMCLib/inc/xmc4_scu.h **** 
 387:/opt/XMClib/XMC_Peripheral_Library_v2.1.16/XMCLib/inc/xmc4_scu.h **** /**
 388:/opt/XMClib/XMC_Peripheral_Library_v2.1.16/XMCLib/inc/xmc4_scu.h ****  *  Defines enumerations for disabling the clocks sources of peripherals. Disabling of the peripher
 389:/opt/XMClib/XMC_Peripheral_Library_v2.1.16/XMCLib/inc/xmc4_scu.h ****  *  clock is configured via the \a CLKCLR registers.
 390:/opt/XMClib/XMC_Peripheral_Library_v2.1.16/XMCLib/inc/xmc4_scu.h ****  *  Use type \a XMC_SCU_PERIPHERAL_CLOCK_t for accessing these enum parameters.
 391:/opt/XMClib/XMC_Peripheral_Library_v2.1.16/XMCLib/inc/xmc4_scu.h ****  */
 392:/opt/XMClib/XMC_Peripheral_Library_v2.1.16/XMCLib/inc/xmc4_scu.h **** typedef enum XMC_SCU_CLOCK
 393:/opt/XMClib/XMC_Peripheral_Library_v2.1.16/XMCLib/inc/xmc4_scu.h **** {
 394:/opt/XMClib/XMC_Peripheral_Library_v2.1.16/XMCLib/inc/xmc4_scu.h ****   XMC_SCU_CLOCK_USB = SCU_CLK_CLKCLR_USBCDI_Msk, /**< USB module clock. */
 395:/opt/XMClib/XMC_Peripheral_Library_v2.1.16/XMCLib/inc/xmc4_scu.h **** #if defined(SDMMC)
 396:/opt/XMClib/XMC_Peripheral_Library_v2.1.16/XMCLib/inc/xmc4_scu.h ****   XMC_SCU_CLOCK_MMC = SCU_CLK_CLKCLR_MMCCDI_Msk, /**< MMC module clock. */
 397:/opt/XMClib/XMC_Peripheral_Library_v2.1.16/XMCLib/inc/xmc4_scu.h **** #endif
 398:/opt/XMClib/XMC_Peripheral_Library_v2.1.16/XMCLib/inc/xmc4_scu.h **** #if defined(ETH0)
 399:/opt/XMClib/XMC_Peripheral_Library_v2.1.16/XMCLib/inc/xmc4_scu.h ****   XMC_SCU_CLOCK_ETH = SCU_CLK_CLKCLR_ETH0CDI_Msk, /**< Ethernet module clock. */
 400:/opt/XMClib/XMC_Peripheral_Library_v2.1.16/XMCLib/inc/xmc4_scu.h **** #endif
 401:/opt/XMClib/XMC_Peripheral_Library_v2.1.16/XMCLib/inc/xmc4_scu.h **** #if defined(EBU)
 402:/opt/XMClib/XMC_Peripheral_Library_v2.1.16/XMCLib/inc/xmc4_scu.h ****   XMC_SCU_CLOCK_EBU = SCU_CLK_CLKCLR_EBUCDI_Msk, /**< EBU module clock. */
 403:/opt/XMClib/XMC_Peripheral_Library_v2.1.16/XMCLib/inc/xmc4_scu.h **** #endif
 404:/opt/XMClib/XMC_Peripheral_Library_v2.1.16/XMCLib/inc/xmc4_scu.h ****   XMC_SCU_CLOCK_CCU = SCU_CLK_CLKCLR_CCUCDI_Msk, /**< CCU module clock. */
 405:/opt/XMClib/XMC_Peripheral_Library_v2.1.16/XMCLib/inc/xmc4_scu.h ****   XMC_SCU_CLOCK_WDT = SCU_CLK_CLKCLR_WDTCDI_Msk  /**< WDT module clock. */
 406:/opt/XMClib/XMC_Peripheral_Library_v2.1.16/XMCLib/inc/xmc4_scu.h **** } XMC_SCU_CLOCK_t;
 407:/opt/XMClib/XMC_Peripheral_Library_v2.1.16/XMCLib/inc/xmc4_scu.h **** 
 408:/opt/XMClib/XMC_Peripheral_Library_v2.1.16/XMCLib/inc/xmc4_scu.h **** #if(UC_SERIES != XMC45)
 409:/opt/XMClib/XMC_Peripheral_Library_v2.1.16/XMCLib/inc/xmc4_scu.h **** /**
 410:/opt/XMClib/XMC_Peripheral_Library_v2.1.16/XMCLib/inc/xmc4_scu.h ****  * Defines enumeration for peripherals that support clock gating. 
 411:/opt/XMClib/XMC_Peripheral_Library_v2.1.16/XMCLib/inc/xmc4_scu.h ****  * The enumerations can be used for gating or ungating the peripheral clocks.
 412:/opt/XMClib/XMC_Peripheral_Library_v2.1.16/XMCLib/inc/xmc4_scu.h ****  * All the enum items are tabulated as per bits present in \a CGATSTAT0 register.
 413:/opt/XMClib/XMC_Peripheral_Library_v2.1.16/XMCLib/inc/xmc4_scu.h ****  * Use type \a XMC_SCU_PERIPHERAL_CLOCK_t for accessing these enum parameters.
 414:/opt/XMClib/XMC_Peripheral_Library_v2.1.16/XMCLib/inc/xmc4_scu.h ****  */
 415:/opt/XMClib/XMC_Peripheral_Library_v2.1.16/XMCLib/inc/xmc4_scu.h **** typedef enum XMC_SCU_PERIPHERAL_CLOCK
 416:/opt/XMClib/XMC_Peripheral_Library_v2.1.16/XMCLib/inc/xmc4_scu.h **** {
 417:/opt/XMClib/XMC_Peripheral_Library_v2.1.16/XMCLib/inc/xmc4_scu.h ****   XMC_SCU_PERIPHERAL_CLOCK_VADC   = SCU_CLK_CGATSTAT0_VADC_Msk,  /**< VADC peripheral gating. */
 418:/opt/XMClib/XMC_Peripheral_Library_v2.1.16/XMCLib/inc/xmc4_scu.h **** #if defined(DSD)
 419:/opt/XMClib/XMC_Peripheral_Library_v2.1.16/XMCLib/inc/xmc4_scu.h ****   XMC_SCU_PERIPHERAL_CLOCK_DSD    = SCU_CLK_CGATSTAT0_DSD_Msk,   /**< DSD peripheral gating. */
 420:/opt/XMClib/XMC_Peripheral_Library_v2.1.16/XMCLib/inc/xmc4_scu.h **** #endif
 421:/opt/XMClib/XMC_Peripheral_Library_v2.1.16/XMCLib/inc/xmc4_scu.h ****   XMC_SCU_PERIPHERAL_CLOCK_CCU40  = SCU_CLK_CGATSTAT0_CCU40_Msk,  /**< CCU40 peripheral gating. */
 422:/opt/XMClib/XMC_Peripheral_Library_v2.1.16/XMCLib/inc/xmc4_scu.h **** #if defined(CCU41)
 423:/opt/XMClib/XMC_Peripheral_Library_v2.1.16/XMCLib/inc/xmc4_scu.h ****   XMC_SCU_PERIPHERAL_CLOCK_CCU41  = SCU_CLK_CGATSTAT0_CCU41_Msk,  /**< CCU41 peripheral gating. */
 424:/opt/XMClib/XMC_Peripheral_Library_v2.1.16/XMCLib/inc/xmc4_scu.h **** #endif  
 425:/opt/XMClib/XMC_Peripheral_Library_v2.1.16/XMCLib/inc/xmc4_scu.h **** #if defined(CCU42)
 426:/opt/XMClib/XMC_Peripheral_Library_v2.1.16/XMCLib/inc/xmc4_scu.h ****   XMC_SCU_PERIPHERAL_CLOCK_CCU42  = SCU_CLK_CGATSTAT0_CCU42_Msk,  /**< CCU42 peripheral gating. */
 427:/opt/XMClib/XMC_Peripheral_Library_v2.1.16/XMCLib/inc/xmc4_scu.h **** #endif
 428:/opt/XMClib/XMC_Peripheral_Library_v2.1.16/XMCLib/inc/xmc4_scu.h **** #if defined(CCU80)
 429:/opt/XMClib/XMC_Peripheral_Library_v2.1.16/XMCLib/inc/xmc4_scu.h ****   XMC_SCU_PERIPHERAL_CLOCK_CCU80  = SCU_CLK_CGATSTAT0_CCU80_Msk,  /**< CCU80 peripheral gating. */
 430:/opt/XMClib/XMC_Peripheral_Library_v2.1.16/XMCLib/inc/xmc4_scu.h **** #endif  
 431:/opt/XMClib/XMC_Peripheral_Library_v2.1.16/XMCLib/inc/xmc4_scu.h **** #if defined(CCU81)
 432:/opt/XMClib/XMC_Peripheral_Library_v2.1.16/XMCLib/inc/xmc4_scu.h ****   XMC_SCU_PERIPHERAL_CLOCK_CCU81  = SCU_CLK_CGATSTAT0_CCU81_Msk,  /**< CCU81 peripheral gating. */
 433:/opt/XMClib/XMC_Peripheral_Library_v2.1.16/XMCLib/inc/xmc4_scu.h **** #endif
 434:/opt/XMClib/XMC_Peripheral_Library_v2.1.16/XMCLib/inc/xmc4_scu.h **** #if defined(POSIF0)
 435:/opt/XMClib/XMC_Peripheral_Library_v2.1.16/XMCLib/inc/xmc4_scu.h ****   XMC_SCU_PERIPHERAL_CLOCK_POSIF0 = SCU_CLK_CGATSTAT0_POSIF0_Msk,  /**< POSIF0 peripheral gating. *
 436:/opt/XMClib/XMC_Peripheral_Library_v2.1.16/XMCLib/inc/xmc4_scu.h **** #endif  
 437:/opt/XMClib/XMC_Peripheral_Library_v2.1.16/XMCLib/inc/xmc4_scu.h **** #if defined(POSIF1)
 438:/opt/XMClib/XMC_Peripheral_Library_v2.1.16/XMCLib/inc/xmc4_scu.h ****   XMC_SCU_PERIPHERAL_CLOCK_POSIF1 = SCU_CLK_CGATSTAT0_POSIF1_Msk,   /**< POSIF1 peripheral gating. 
 439:/opt/XMClib/XMC_Peripheral_Library_v2.1.16/XMCLib/inc/xmc4_scu.h **** #endif
 440:/opt/XMClib/XMC_Peripheral_Library_v2.1.16/XMCLib/inc/xmc4_scu.h ****   XMC_SCU_PERIPHERAL_CLOCK_USIC0  = SCU_CLK_CGATSTAT0_USIC0_Msk,   /**< USIC0 peripheral gating. */
 441:/opt/XMClib/XMC_Peripheral_Library_v2.1.16/XMCLib/inc/xmc4_scu.h ****   XMC_SCU_PERIPHERAL_CLOCK_ERU1   = SCU_CLK_CGATSTAT0_ERU1_Msk,    /**< ERU1 peripheral gating. */
 442:/opt/XMClib/XMC_Peripheral_Library_v2.1.16/XMCLib/inc/xmc4_scu.h **** #if defined(HRPWM0)
 443:/opt/XMClib/XMC_Peripheral_Library_v2.1.16/XMCLib/inc/xmc4_scu.h ****   XMC_SCU_PERIPHERAL_CLOCK_HRPWM0 = SCU_CLK_CGATSTAT0_HRPWM0_Msk,  /**< HRPWM0 peripheral gating. *
 444:/opt/XMClib/XMC_Peripheral_Library_v2.1.16/XMCLib/inc/xmc4_scu.h **** #endif
 445:/opt/XMClib/XMC_Peripheral_Library_v2.1.16/XMCLib/inc/xmc4_scu.h **** #if defined(CCU43)
 446:/opt/XMClib/XMC_Peripheral_Library_v2.1.16/XMCLib/inc/xmc4_scu.h ****   XMC_SCU_PERIPHERAL_CLOCK_CCU43  = (SCU_CLK_CGATSTAT1_CCU43_Msk | 0x10000000UL),   /**< CCU43 peri
 447:/opt/XMClib/XMC_Peripheral_Library_v2.1.16/XMCLib/inc/xmc4_scu.h **** #endif
 448:/opt/XMClib/XMC_Peripheral_Library_v2.1.16/XMCLib/inc/xmc4_scu.h **** #if defined(LEDTS0)
 449:/opt/XMClib/XMC_Peripheral_Library_v2.1.16/XMCLib/inc/xmc4_scu.h ****   XMC_SCU_PERIPHERAL_CLOCK_LEDTS0 = (SCU_CLK_CGATSTAT1_LEDTSCU0_Msk | 0x10000000UL), /**< LEDTS0 pe
 450:/opt/XMClib/XMC_Peripheral_Library_v2.1.16/XMCLib/inc/xmc4_scu.h **** #endif  
 451:/opt/XMClib/XMC_Peripheral_Library_v2.1.16/XMCLib/inc/xmc4_scu.h **** #if defined(CAN)
 452:/opt/XMClib/XMC_Peripheral_Library_v2.1.16/XMCLib/inc/xmc4_scu.h ****   XMC_SCU_PERIPHERAL_CLOCK_MCAN   = (SCU_CLK_CGATSTAT1_MCAN0_Msk | 0x10000000UL),   /**< MCAN perip
 453:/opt/XMClib/XMC_Peripheral_Library_v2.1.16/XMCLib/inc/xmc4_scu.h **** #endif
 454:/opt/XMClib/XMC_Peripheral_Library_v2.1.16/XMCLib/inc/xmc4_scu.h **** #if defined(DAC)  
 455:/opt/XMClib/XMC_Peripheral_Library_v2.1.16/XMCLib/inc/xmc4_scu.h ****   XMC_SCU_PERIPHERAL_CLOCK_DAC    = (SCU_CLK_CGATSTAT1_DAC_Msk | 0x10000000UL),     /**< DAC periph
 456:/opt/XMClib/XMC_Peripheral_Library_v2.1.16/XMCLib/inc/xmc4_scu.h **** #endif  
 457:/opt/XMClib/XMC_Peripheral_Library_v2.1.16/XMCLib/inc/xmc4_scu.h **** #if defined(SDMMC)
 458:/opt/XMClib/XMC_Peripheral_Library_v2.1.16/XMCLib/inc/xmc4_scu.h ****   XMC_SCU_PERIPHERAL_CLOCK_SDMMC  = (SCU_CLK_CGATSTAT1_MMCI_Msk | 0x10000000UL),    /**< SDMMC peri
 459:/opt/XMClib/XMC_Peripheral_Library_v2.1.16/XMCLib/inc/xmc4_scu.h **** #endif
 460:/opt/XMClib/XMC_Peripheral_Library_v2.1.16/XMCLib/inc/xmc4_scu.h **** #if defined(USIC1)
 461:/opt/XMClib/XMC_Peripheral_Library_v2.1.16/XMCLib/inc/xmc4_scu.h ****   XMC_SCU_PERIPHERAL_CLOCK_USIC1  = (SCU_CLK_CGATSTAT1_USIC1_Msk | 0x10000000UL),   /**< USIC1 peri
 462:/opt/XMClib/XMC_Peripheral_Library_v2.1.16/XMCLib/inc/xmc4_scu.h **** #endif  
 463:/opt/XMClib/XMC_Peripheral_Library_v2.1.16/XMCLib/inc/xmc4_scu.h **** #if defined(USIC2)
 464:/opt/XMClib/XMC_Peripheral_Library_v2.1.16/XMCLib/inc/xmc4_scu.h ****   XMC_SCU_PERIPHERAL_CLOCK_USIC2  = (SCU_CLK_CGATSTAT1_USIC2_Msk | 0x10000000UL),    /**< USIC2 per
 465:/opt/XMClib/XMC_Peripheral_Library_v2.1.16/XMCLib/inc/xmc4_scu.h **** #endif
 466:/opt/XMClib/XMC_Peripheral_Library_v2.1.16/XMCLib/inc/xmc4_scu.h ****   XMC_SCU_PERIPHERAL_CLOCK_PORTS  = (SCU_CLK_CGATSTAT1_PPORTS_Msk | 0x10000000UL),   /**< PORTS per
 467:/opt/XMClib/XMC_Peripheral_Library_v2.1.16/XMCLib/inc/xmc4_scu.h ****   XMC_SCU_PERIPHERAL_CLOCK_WDT    = (SCU_CLK_CGATSTAT2_WDT_Msk | 0x20000000UL),      /**< WDT perip
 468:/opt/XMClib/XMC_Peripheral_Library_v2.1.16/XMCLib/inc/xmc4_scu.h **** #if defined(ETH0)
 469:/opt/XMClib/XMC_Peripheral_Library_v2.1.16/XMCLib/inc/xmc4_scu.h ****   XMC_SCU_PERIPHERAL_CLOCK_ETH0   = (SCU_CLK_CGATSTAT2_ETH0_Msk | 0x20000000UL),     /**< ETH0 peri
 470:/opt/XMClib/XMC_Peripheral_Library_v2.1.16/XMCLib/inc/xmc4_scu.h **** #endif
 471:/opt/XMClib/XMC_Peripheral_Library_v2.1.16/XMCLib/inc/xmc4_scu.h ****   XMC_SCU_PERIPHERAL_CLOCK_GPDMA0 = (SCU_CLK_CGATSTAT2_DMA0_Msk | 0x20000000UL),     /**< DMA0 peri
 472:/opt/XMClib/XMC_Peripheral_Library_v2.1.16/XMCLib/inc/xmc4_scu.h **** #if defined(GPDMA1)
 473:/opt/XMClib/XMC_Peripheral_Library_v2.1.16/XMCLib/inc/xmc4_scu.h ****   XMC_SCU_PERIPHERAL_CLOCK_GPDMA1 = (SCU_CLK_CGATSTAT2_DMA1_Msk | 0x20000000UL),     /**< DMA1 peri
 474:/opt/XMClib/XMC_Peripheral_Library_v2.1.16/XMCLib/inc/xmc4_scu.h **** #endif
 475:/opt/XMClib/XMC_Peripheral_Library_v2.1.16/XMCLib/inc/xmc4_scu.h **** #if defined(FCE)
 476:/opt/XMClib/XMC_Peripheral_Library_v2.1.16/XMCLib/inc/xmc4_scu.h ****   XMC_SCU_PERIPHERAL_CLOCK_FCE    = (SCU_CLK_CGATSTAT2_FCE_Msk | 0x20000000UL),      /**< FCE perip
 477:/opt/XMClib/XMC_Peripheral_Library_v2.1.16/XMCLib/inc/xmc4_scu.h **** #endif  
 478:/opt/XMClib/XMC_Peripheral_Library_v2.1.16/XMCLib/inc/xmc4_scu.h **** #if defined(USB0)
 479:/opt/XMClib/XMC_Peripheral_Library_v2.1.16/XMCLib/inc/xmc4_scu.h ****   XMC_SCU_PERIPHERAL_CLOCK_USB0   = (SCU_CLK_CGATSTAT2_USB_Msk | 0x20000000UL),      /**< USB0 peri
 480:/opt/XMClib/XMC_Peripheral_Library_v2.1.16/XMCLib/inc/xmc4_scu.h **** #endif  
 481:/opt/XMClib/XMC_Peripheral_Library_v2.1.16/XMCLib/inc/xmc4_scu.h **** #if defined(ECAT0)
 482:/opt/XMClib/XMC_Peripheral_Library_v2.1.16/XMCLib/inc/xmc4_scu.h ****   XMC_SCU_PERIPHERAL_CLOCK_ECAT0   = (SCU_CLK_CGATSTAT2_ECAT0_Msk | 0x20000000UL),      /**< ECAT0 
 483:/opt/XMClib/XMC_Peripheral_Library_v2.1.16/XMCLib/inc/xmc4_scu.h **** #endif  
 484:/opt/XMClib/XMC_Peripheral_Library_v2.1.16/XMCLib/inc/xmc4_scu.h **** #if defined(EBU)
 485:/opt/XMClib/XMC_Peripheral_Library_v2.1.16/XMCLib/inc/xmc4_scu.h ****   XMC_SCU_PERIPHERAL_CLOCK_EBU    = (SCU_CLK_CGATSTAT3_EBU_Msk | 0x30000000UL)       /**< EBU perip
 486:/opt/XMClib/XMC_Peripheral_Library_v2.1.16/XMCLib/inc/xmc4_scu.h **** #endif
 487:/opt/XMClib/XMC_Peripheral_Library_v2.1.16/XMCLib/inc/xmc4_scu.h **** } XMC_SCU_PERIPHERAL_CLOCK_t;
 488:/opt/XMClib/XMC_Peripheral_Library_v2.1.16/XMCLib/inc/xmc4_scu.h **** #endif
 489:/opt/XMClib/XMC_Peripheral_Library_v2.1.16/XMCLib/inc/xmc4_scu.h **** 
 490:/opt/XMClib/XMC_Peripheral_Library_v2.1.16/XMCLib/inc/xmc4_scu.h **** /**
 491:/opt/XMClib/XMC_Peripheral_Library_v2.1.16/XMCLib/inc/xmc4_scu.h ****  *  Defines options for system clock (fSYS) source. These enums are used to configure \a SYSSEL bit
 492:/opt/XMClib/XMC_Peripheral_Library_v2.1.16/XMCLib/inc/xmc4_scu.h ****  *  Clock Control Register. 
 493:/opt/XMClib/XMC_Peripheral_Library_v2.1.16/XMCLib/inc/xmc4_scu.h ****  *  Use type \a XMC_SCU_CLOCK_SYSCLKSRC_t for accessing these enum parameters.
 494:/opt/XMClib/XMC_Peripheral_Library_v2.1.16/XMCLib/inc/xmc4_scu.h ****  */ 
 495:/opt/XMClib/XMC_Peripheral_Library_v2.1.16/XMCLib/inc/xmc4_scu.h **** typedef enum XMC_SCU_CLOCK_SYSCLKSRC
 496:/opt/XMClib/XMC_Peripheral_Library_v2.1.16/XMCLib/inc/xmc4_scu.h **** {
 497:/opt/XMClib/XMC_Peripheral_Library_v2.1.16/XMCLib/inc/xmc4_scu.h ****   XMC_SCU_CLOCK_SYSCLKSRC_OFI = (0UL << SCU_CLK_SYSCLKCR_SYSSEL_Pos), /**< Internal Fast Clock (fOF
 498:/opt/XMClib/XMC_Peripheral_Library_v2.1.16/XMCLib/inc/xmc4_scu.h ****                                                                            source for system clock 
 499:/opt/XMClib/XMC_Peripheral_Library_v2.1.16/XMCLib/inc/xmc4_scu.h ****   XMC_SCU_CLOCK_SYSCLKSRC_PLL = (1UL << SCU_CLK_SYSCLKCR_SYSSEL_Pos)  /**< PLL output (fPLL) as a
 500:/opt/XMClib/XMC_Peripheral_Library_v2.1.16/XMCLib/inc/xmc4_scu.h ****                                                                            source for system clock 
 501:/opt/XMClib/XMC_Peripheral_Library_v2.1.16/XMCLib/inc/xmc4_scu.h **** } XMC_SCU_CLOCK_SYSCLKSRC_t;
 502:/opt/XMClib/XMC_Peripheral_Library_v2.1.16/XMCLib/inc/xmc4_scu.h **** 
 503:/opt/XMClib/XMC_Peripheral_Library_v2.1.16/XMCLib/inc/xmc4_scu.h **** /**
 504:/opt/XMClib/XMC_Peripheral_Library_v2.1.16/XMCLib/inc/xmc4_scu.h ****  *  Defines options for selecting the P-Divider input frequency. These enums are used to configure 
 505:/opt/XMClib/XMC_Peripheral_Library_v2.1.16/XMCLib/inc/xmc4_scu.h ****  *  register. 
 506:/opt/XMClib/XMC_Peripheral_Library_v2.1.16/XMCLib/inc/xmc4_scu.h ****  *  Use type \a XMC_SCU_CLOCK_OSCCLKSRC_t for accessing these enum parameters.
 507:/opt/XMClib/XMC_Peripheral_Library_v2.1.16/XMCLib/inc/xmc4_scu.h ****  */ 
 508:/opt/XMClib/XMC_Peripheral_Library_v2.1.16/XMCLib/inc/xmc4_scu.h **** typedef enum XMC_SCU_CLOCK_SYSPLLCLKSRC
 509:/opt/XMClib/XMC_Peripheral_Library_v2.1.16/XMCLib/inc/xmc4_scu.h **** {
 510:/opt/XMClib/XMC_Peripheral_Library_v2.1.16/XMCLib/inc/xmc4_scu.h ****   XMC_SCU_CLOCK_SYSPLLCLKSRC_OSCHP = 0UL,  /**< External crystal oscillator
 511:/opt/XMClib/XMC_Peripheral_Library_v2.1.16/XMCLib/inc/xmc4_scu.h ****                                                 (fOHP) as the source for P-Divider. */
 512:/opt/XMClib/XMC_Peripheral_Library_v2.1.16/XMCLib/inc/xmc4_scu.h ****   XMC_SCU_CLOCK_SYSPLLCLKSRC_OFI = SCU_PLL_PLLCON2_PINSEL_Msk | SCU_PLL_PLLCON2_K1INSEL_Msk /**< Ba
 513:/opt/XMClib/XMC_Peripheral_Library_v2.1.16/XMCLib/inc/xmc4_scu.h ****                                                                              as the source for P-Di
 514:/opt/XMClib/XMC_Peripheral_Library_v2.1.16/XMCLib/inc/xmc4_scu.h **** } XMC_SCU_CLOCK_SYSPLLCLKSRC_t;
 515:/opt/XMClib/XMC_Peripheral_Library_v2.1.16/XMCLib/inc/xmc4_scu.h **** 
 516:/opt/XMClib/XMC_Peripheral_Library_v2.1.16/XMCLib/inc/xmc4_scu.h **** /**
 517:/opt/XMClib/XMC_Peripheral_Library_v2.1.16/XMCLib/inc/xmc4_scu.h ****  * Defines options for selecting the USB clock source(fUSB/fSDMMC).
 518:/opt/XMClib/XMC_Peripheral_Library_v2.1.16/XMCLib/inc/xmc4_scu.h ****  * These enums are used to configure \a USBSEL bits of \a USBCLKCR
 519:/opt/XMClib/XMC_Peripheral_Library_v2.1.16/XMCLib/inc/xmc4_scu.h ****  * register. User can choose either fPLL or fUSBPLL clock as a source for USB clock. 
 520:/opt/XMClib/XMC_Peripheral_Library_v2.1.16/XMCLib/inc/xmc4_scu.h ****  * Use type \a XMC_SCU_CLOCK_USBCLKSRC_t for accessing these enum parameters.
 521:/opt/XMClib/XMC_Peripheral_Library_v2.1.16/XMCLib/inc/xmc4_scu.h ****  */ 
 522:/opt/XMClib/XMC_Peripheral_Library_v2.1.16/XMCLib/inc/xmc4_scu.h **** typedef enum XMC_SCU_CLOCK_USBCLKSRC
 523:/opt/XMClib/XMC_Peripheral_Library_v2.1.16/XMCLib/inc/xmc4_scu.h **** {
 524:/opt/XMClib/XMC_Peripheral_Library_v2.1.16/XMCLib/inc/xmc4_scu.h ****   XMC_SCU_CLOCK_USBCLKSRC_USBPLL = (0UL << SCU_CLK_USBCLKCR_USBSEL_Pos), /**< USB PLL(fUSB PLL) as 
 525:/opt/XMClib/XMC_Peripheral_Library_v2.1.16/XMCLib/inc/xmc4_scu.h ****                                                                            source for USB clock (fU
 526:/opt/XMClib/XMC_Peripheral_Library_v2.1.16/XMCLib/inc/xmc4_scu.h ****   XMC_SCU_CLOCK_USBCLKSRC_SYSPLL = (1UL << SCU_CLK_USBCLKCR_USBSEL_Pos)  /**< Main PLL output (fPLL
 527:/opt/XMClib/XMC_Peripheral_Library_v2.1.16/XMCLib/inc/xmc4_scu.h ****                                                                            source for USB clock (fU
 528:/opt/XMClib/XMC_Peripheral_Library_v2.1.16/XMCLib/inc/xmc4_scu.h **** } XMC_SCU_CLOCK_USBCLKSRC_t;
 529:/opt/XMClib/XMC_Peripheral_Library_v2.1.16/XMCLib/inc/xmc4_scu.h **** 
 530:/opt/XMClib/XMC_Peripheral_Library_v2.1.16/XMCLib/inc/xmc4_scu.h **** #if defined(ECAT0) 
 531:/opt/XMClib/XMC_Peripheral_Library_v2.1.16/XMCLib/inc/xmc4_scu.h **** /**
 532:/opt/XMClib/XMC_Peripheral_Library_v2.1.16/XMCLib/inc/xmc4_scu.h ****  * Defines options for selecting the ECAT clock source.
 533:/opt/XMClib/XMC_Peripheral_Library_v2.1.16/XMCLib/inc/xmc4_scu.h ****  */ 
 534:/opt/XMClib/XMC_Peripheral_Library_v2.1.16/XMCLib/inc/xmc4_scu.h **** typedef enum XMC_SCU_CLOCK_ECATCLKSRC
 535:/opt/XMClib/XMC_Peripheral_Library_v2.1.16/XMCLib/inc/xmc4_scu.h **** {
 536:/opt/XMClib/XMC_Peripheral_Library_v2.1.16/XMCLib/inc/xmc4_scu.h ****   XMC_SCU_CLOCK_ECATCLKSRC_USBPLL = (0UL << SCU_CLK_ECATCLKCR_ECATSEL_Pos), /**< USB PLL (fUSBPLL) 
 537:/opt/XMClib/XMC_Peripheral_Library_v2.1.16/XMCLib/inc/xmc4_scu.h ****   XMC_SCU_CLOCK_ECATCLKSRC_SYSPLL = (1UL << SCU_CLK_ECATCLKCR_ECATSEL_Pos)  /**< Main PLL output (f
 538:/opt/XMClib/XMC_Peripheral_Library_v2.1.16/XMCLib/inc/xmc4_scu.h **** } XMC_SCU_CLOCK_ECATCLKSRC_t;
 539:/opt/XMClib/XMC_Peripheral_Library_v2.1.16/XMCLib/inc/xmc4_scu.h **** #endif
 540:/opt/XMClib/XMC_Peripheral_Library_v2.1.16/XMCLib/inc/xmc4_scu.h **** 
 541:/opt/XMClib/XMC_Peripheral_Library_v2.1.16/XMCLib/inc/xmc4_scu.h **** /**
 542:/opt/XMClib/XMC_Peripheral_Library_v2.1.16/XMCLib/inc/xmc4_scu.h ****  *  Defines options for selecting the source of WDT clock(fWDT). These enums are used to configure 
 543:/opt/XMClib/XMC_Peripheral_Library_v2.1.16/XMCLib/inc/xmc4_scu.h ****  *  register. User can choose either fOFI or fPLL or fSTDBY clock as a source for WDT clock. 
 544:/opt/XMClib/XMC_Peripheral_Library_v2.1.16/XMCLib/inc/xmc4_scu.h ****  *  Use type \a XMC_SCU_CLOCK_USBCLKSRC_t for accessing these enum parameters.
 545:/opt/XMClib/XMC_Peripheral_Library_v2.1.16/XMCLib/inc/xmc4_scu.h ****  */ 
 546:/opt/XMClib/XMC_Peripheral_Library_v2.1.16/XMCLib/inc/xmc4_scu.h **** typedef enum XMC_SCU_CLOCK_WDTCLKSRC
 547:/opt/XMClib/XMC_Peripheral_Library_v2.1.16/XMCLib/inc/xmc4_scu.h **** {
 548:/opt/XMClib/XMC_Peripheral_Library_v2.1.16/XMCLib/inc/xmc4_scu.h ****   XMC_SCU_CLOCK_WDTCLKSRC_OFI = (0UL << SCU_CLK_WDTCLKCR_WDTSEL_Pos),  /**< Internal Fast Clock 
 549:/opt/XMClib/XMC_Peripheral_Library_v2.1.16/XMCLib/inc/xmc4_scu.h ****                                                                            (fOFI) as the source for
 550:/opt/XMClib/XMC_Peripheral_Library_v2.1.16/XMCLib/inc/xmc4_scu.h ****   XMC_SCU_CLOCK_WDTCLKSRC_STDBY = (1UL << SCU_CLK_WDTCLKCR_WDTSEL_Pos), /**< Standby clock 
 551:/opt/XMClib/XMC_Peripheral_Library_v2.1.16/XMCLib/inc/xmc4_scu.h ****                                                                            (fSTDBY) as the source f
 552:/opt/XMClib/XMC_Peripheral_Library_v2.1.16/XMCLib/inc/xmc4_scu.h ****   XMC_SCU_CLOCK_WDTCLKSRC_PLL = (2UL << SCU_CLK_WDTCLKCR_WDTSEL_Pos)   /**< PLL output (fPLL) as th
 553:/opt/XMClib/XMC_Peripheral_Library_v2.1.16/XMCLib/inc/xmc4_scu.h ****                                                                            source for WDT clock (fW
 554:/opt/XMClib/XMC_Peripheral_Library_v2.1.16/XMCLib/inc/xmc4_scu.h **** } XMC_SCU_CLOCK_WDTCLKSRC_t;
 555:/opt/XMClib/XMC_Peripheral_Library_v2.1.16/XMCLib/inc/xmc4_scu.h **** 
 556:/opt/XMClib/XMC_Peripheral_Library_v2.1.16/XMCLib/inc/xmc4_scu.h **** /**
 557:/opt/XMClib/XMC_Peripheral_Library_v2.1.16/XMCLib/inc/xmc4_scu.h ****  *  Defines options for selecting the source of external clock out (fEXT). These enums are used to 
 558:/opt/XMClib/XMC_Peripheral_Library_v2.1.16/XMCLib/inc/xmc4_scu.h ****  *  register. User can choose either fSYS or fPLL or fUSBPLL clock as a source for external clock o
 559:/opt/XMClib/XMC_Peripheral_Library_v2.1.16/XMCLib/inc/xmc4_scu.h ****  *  Use type \a XMC_SCU_CLOCK_EXTOUTCLKSRC_t for accessing these enum parameters.
 560:/opt/XMClib/XMC_Peripheral_Library_v2.1.16/XMCLib/inc/xmc4_scu.h ****  */ 
 561:/opt/XMClib/XMC_Peripheral_Library_v2.1.16/XMCLib/inc/xmc4_scu.h **** typedef enum XMC_SCU_CLOCK_EXTOUTCLKSRC
 562:/opt/XMClib/XMC_Peripheral_Library_v2.1.16/XMCLib/inc/xmc4_scu.h **** {
 563:/opt/XMClib/XMC_Peripheral_Library_v2.1.16/XMCLib/inc/xmc4_scu.h ****   XMC_SCU_CLOCK_EXTOUTCLKSRC_SYS = (0UL << SCU_CLK_EXTCLKCR_ECKSEL_Pos),  /**< System clock (fSYS) 
 564:/opt/XMClib/XMC_Peripheral_Library_v2.1.16/XMCLib/inc/xmc4_scu.h ****                                                                             the source for external
 565:/opt/XMClib/XMC_Peripheral_Library_v2.1.16/XMCLib/inc/xmc4_scu.h ****   XMC_SCU_CLOCK_EXTOUTCLKSRC_USB = (2UL << SCU_CLK_EXTCLKCR_ECKSEL_Pos), /**< USB PLL output(fUSB P
 566:/opt/XMClib/XMC_Peripheral_Library_v2.1.16/XMCLib/inc/xmc4_scu.h ****                                                                            source for external cloc
 567:/opt/XMClib/XMC_Peripheral_Library_v2.1.16/XMCLib/inc/xmc4_scu.h ****   XMC_SCU_CLOCK_EXTOUTCLKSRC_PLL = (3UL << SCU_CLK_EXTCLKCR_ECKSEL_Pos), /**< Main PLL output(fPLL)
 568:/opt/XMClib/XMC_Peripheral_Library_v2.1.16/XMCLib/inc/xmc4_scu.h ****                                                                            source for external cloc
 569:/opt/XMClib/XMC_Peripheral_Library_v2.1.16/XMCLib/inc/xmc4_scu.h **** #if ((UC_SERIES == XMC42) || (UC_SERIES == XMC41))
 570:/opt/XMClib/XMC_Peripheral_Library_v2.1.16/XMCLib/inc/xmc4_scu.h ****   XMC_SCU_CLOCK_EXTOUTCLKSRC_STDBY = (4UL << SCU_CLK_EXTCLKCR_ECKSEL_Pos), /**< Standby clock(fSTDB
 571:/opt/XMClib/XMC_Peripheral_Library_v2.1.16/XMCLib/inc/xmc4_scu.h ****                                                                            source for external cloc
 572:/opt/XMClib/XMC_Peripheral_Library_v2.1.16/XMCLib/inc/xmc4_scu.h **** #endif
 573:/opt/XMClib/XMC_Peripheral_Library_v2.1.16/XMCLib/inc/xmc4_scu.h **** } XMC_SCU_CLOCK_EXTOUTCLKSRC_t;
 574:/opt/XMClib/XMC_Peripheral_Library_v2.1.16/XMCLib/inc/xmc4_scu.h **** 
 575:/opt/XMClib/XMC_Peripheral_Library_v2.1.16/XMCLib/inc/xmc4_scu.h **** /**
 576:/opt/XMClib/XMC_Peripheral_Library_v2.1.16/XMCLib/inc/xmc4_scu.h ****  *  Defines options for selecting the source of RTC Clock (fRTC). These enums are used to configure
 577:/opt/XMClib/XMC_Peripheral_Library_v2.1.16/XMCLib/inc/xmc4_scu.h ****  *  User can choose either fOSI or fULP clock as a source for RTC Clock (fRTC).
 578:/opt/XMClib/XMC_Peripheral_Library_v2.1.16/XMCLib/inc/xmc4_scu.h ****  *  Use type \a XMC_SCU_HIB_RTCCLKSRC_t for accessing these enum parameters.
 579:/opt/XMClib/XMC_Peripheral_Library_v2.1.16/XMCLib/inc/xmc4_scu.h ****  */
 580:/opt/XMClib/XMC_Peripheral_Library_v2.1.16/XMCLib/inc/xmc4_scu.h **** typedef enum XMC_SCU_HIB_RTCCLKSRC
 581:/opt/XMClib/XMC_Peripheral_Library_v2.1.16/XMCLib/inc/xmc4_scu.h **** {
 582:/opt/XMClib/XMC_Peripheral_Library_v2.1.16/XMCLib/inc/xmc4_scu.h ****   XMC_SCU_HIB_RTCCLKSRC_OSI = (0UL << SCU_HIBERNATE_HDCR_RCS_Pos), /**< Internal Slow Clock
 583:/opt/XMClib/XMC_Peripheral_Library_v2.1.16/XMCLib/inc/xmc4_scu.h ****                                                                          (fOSI) as the source for R
 584:/opt/XMClib/XMC_Peripheral_Library_v2.1.16/XMCLib/inc/xmc4_scu.h ****   XMC_SCU_HIB_RTCCLKSRC_ULP = (1UL << SCU_HIBERNATE_HDCR_RCS_Pos) /**< Ultra Low Power Clock (fULP)
 585:/opt/XMClib/XMC_Peripheral_Library_v2.1.16/XMCLib/inc/xmc4_scu.h ****                                                                         as the source for RTC Clock
 586:/opt/XMClib/XMC_Peripheral_Library_v2.1.16/XMCLib/inc/xmc4_scu.h **** } XMC_SCU_HIB_RTCCLKSRC_t;
 587:/opt/XMClib/XMC_Peripheral_Library_v2.1.16/XMCLib/inc/xmc4_scu.h **** 
 588:/opt/XMClib/XMC_Peripheral_Library_v2.1.16/XMCLib/inc/xmc4_scu.h **** /**
 589:/opt/XMClib/XMC_Peripheral_Library_v2.1.16/XMCLib/inc/xmc4_scu.h ****  *  Defines options for selecting the source of Standby Clock (fSTDBY). These enums are used to con
 590:/opt/XMClib/XMC_Peripheral_Library_v2.1.16/XMCLib/inc/xmc4_scu.h ****  *  register. User can choose either fOSI or fULP clock as a source for Standby Clock (fSTDBY).
 591:/opt/XMClib/XMC_Peripheral_Library_v2.1.16/XMCLib/inc/xmc4_scu.h ****  *  Use type \a XMC_SCU_HIB_STDBYCLKSRC_t for accessing these enum parameters.
 592:/opt/XMClib/XMC_Peripheral_Library_v2.1.16/XMCLib/inc/xmc4_scu.h ****  */
 593:/opt/XMClib/XMC_Peripheral_Library_v2.1.16/XMCLib/inc/xmc4_scu.h **** typedef enum XMC_SCU_HIB_STDBYCLKSRC
 594:/opt/XMClib/XMC_Peripheral_Library_v2.1.16/XMCLib/inc/xmc4_scu.h **** {
 595:/opt/XMClib/XMC_Peripheral_Library_v2.1.16/XMCLib/inc/xmc4_scu.h ****   XMC_SCU_HIB_STDBYCLKSRC_OSI = (0UL << SCU_HIBERNATE_HDCR_STDBYSEL_Pos), /**< Internal Slow Clock 
 596:/opt/XMClib/XMC_Peripheral_Library_v2.1.16/XMCLib/inc/xmc4_scu.h ****                                                                           (fOSI) as the source for 
 597:/opt/XMClib/XMC_Peripheral_Library_v2.1.16/XMCLib/inc/xmc4_scu.h ****                                                                           (fSTDBY). */
 598:/opt/XMClib/XMC_Peripheral_Library_v2.1.16/XMCLib/inc/xmc4_scu.h ****   XMC_SCU_HIB_STDBYCLKSRC_OSCULP = (1UL << SCU_HIBERNATE_HDCR_STDBYSEL_Pos) /**< Ultra Low Power Cl
 599:/opt/XMClib/XMC_Peripheral_Library_v2.1.16/XMCLib/inc/xmc4_scu.h ****                                                                           (fULP) as the source for 
 600:/opt/XMClib/XMC_Peripheral_Library_v2.1.16/XMCLib/inc/xmc4_scu.h ****                                                                           (fSTDBY). */
 601:/opt/XMClib/XMC_Peripheral_Library_v2.1.16/XMCLib/inc/xmc4_scu.h **** } XMC_SCU_HIB_STDBYCLKSRC_t;
 602:/opt/XMClib/XMC_Peripheral_Library_v2.1.16/XMCLib/inc/xmc4_scu.h **** 
 603:/opt/XMClib/XMC_Peripheral_Library_v2.1.16/XMCLib/inc/xmc4_scu.h **** /**
 604:/opt/XMClib/XMC_Peripheral_Library_v2.1.16/XMCLib/inc/xmc4_scu.h ****  *  Defines options for backup clock trimming. These enums are used to configure \a AOTREN  \a FOTR
 605:/opt/XMClib/XMC_Peripheral_Library_v2.1.16/XMCLib/inc/xmc4_scu.h ****  *  PLLCON0 register. Use type \a XMC_SCU_CLOCK_BACKUP_TRIM_t for accessing these enum parameters.
 606:/opt/XMClib/XMC_Peripheral_Library_v2.1.16/XMCLib/inc/xmc4_scu.h ****  */
 607:/opt/XMClib/XMC_Peripheral_Library_v2.1.16/XMCLib/inc/xmc4_scu.h **** typedef enum XMC_SCU_CLOCK_FOFI_CALIBRATION_MODE
 608:/opt/XMClib/XMC_Peripheral_Library_v2.1.16/XMCLib/inc/xmc4_scu.h **** {
 609:/opt/XMClib/XMC_Peripheral_Library_v2.1.16/XMCLib/inc/xmc4_scu.h ****   XMC_SCU_CLOCK_FOFI_CALIBRATION_MODE_FACTORY   = 0UL,  /**< Factory Oscillator Calibration: 
 610:/opt/XMClib/XMC_Peripheral_Library_v2.1.16/XMCLib/inc/xmc4_scu.h ****                                                         Force adjustment of the internal oscillator
 611:/opt/XMClib/XMC_Peripheral_Library_v2.1.16/XMCLib/inc/xmc4_scu.h ****   XMC_SCU_CLOCK_FOFI_CALIBRATION_MODE_AUTOMATIC = 1UL   /**<  Automatic Oscillator Calibration adju
 612:/opt/XMClib/XMC_Peripheral_Library_v2.1.16/XMCLib/inc/xmc4_scu.h **** } XMC_SCU_CLOCK_FOFI_CALIBRATION_MODE_t;
 613:/opt/XMClib/XMC_Peripheral_Library_v2.1.16/XMCLib/inc/xmc4_scu.h **** 
 614:/opt/XMClib/XMC_Peripheral_Library_v2.1.16/XMCLib/inc/xmc4_scu.h **** 
 615:/opt/XMClib/XMC_Peripheral_Library_v2.1.16/XMCLib/inc/xmc4_scu.h **** /**
 616:/opt/XMClib/XMC_Peripheral_Library_v2.1.16/XMCLib/inc/xmc4_scu.h ****  *  Defines options for selecting device boot mode. These enums are used to configure \a SWCON bits
 617:/opt/XMClib/XMC_Peripheral_Library_v2.1.16/XMCLib/inc/xmc4_scu.h ****  *  User can choose among various boot modes by configuring SWCON bits.
 618:/opt/XMClib/XMC_Peripheral_Library_v2.1.16/XMCLib/inc/xmc4_scu.h ****  *  Use type \a XMC_SCU_BOOTMODE_t for accessing these enum parameters.
 619:/opt/XMClib/XMC_Peripheral_Library_v2.1.16/XMCLib/inc/xmc4_scu.h ****  */
 620:/opt/XMClib/XMC_Peripheral_Library_v2.1.16/XMCLib/inc/xmc4_scu.h **** typedef enum XMC_SCU_BOOTMODE 
 621:/opt/XMClib/XMC_Peripheral_Library_v2.1.16/XMCLib/inc/xmc4_scu.h **** {
 622:/opt/XMClib/XMC_Peripheral_Library_v2.1.16/XMCLib/inc/xmc4_scu.h ****   XMC_SCU_BOOTMODE_NORMAL     = (0UL << SCU_GENERAL_STCON_SWCON_Pos), /**< Boot from start of flash
 623:/opt/XMClib/XMC_Peripheral_Library_v2.1.16/XMCLib/inc/xmc4_scu.h ****   XMC_SCU_BOOTMODE_ASC_BSL    = (1UL << SCU_GENERAL_STCON_SWCON_Pos), /**< UART bootstrap. */
 624:/opt/XMClib/XMC_Peripheral_Library_v2.1.16/XMCLib/inc/xmc4_scu.h ****   XMC_SCU_BOOTMODE_BMI        = (2UL << SCU_GENERAL_STCON_SWCON_Pos), /**< Boot Mode Index - Custom
 625:/opt/XMClib/XMC_Peripheral_Library_v2.1.16/XMCLib/inc/xmc4_scu.h ****                                                                            sequence. */
 626:/opt/XMClib/XMC_Peripheral_Library_v2.1.16/XMCLib/inc/xmc4_scu.h ****   XMC_SCU_BOOTMODE_CAN_BSL    = (3UL << SCU_GENERAL_STCON_SWCON_Pos), /**< CAN bootstrap. */
 627:/opt/XMClib/XMC_Peripheral_Library_v2.1.16/XMCLib/inc/xmc4_scu.h ****   XMC_SCU_BOOTMODE_PSRAM_BOOT = (4UL << SCU_GENERAL_STCON_SWCON_Pos), /**< Boot from PSRAM. */
 628:/opt/XMClib/XMC_Peripheral_Library_v2.1.16/XMCLib/inc/xmc4_scu.h ****   XMC_SCU_BOOTMODE_ABM0       = (8UL << SCU_GENERAL_STCON_SWCON_Pos), /**< Boot from flash - fixed 
 629:/opt/XMClib/XMC_Peripheral_Library_v2.1.16/XMCLib/inc/xmc4_scu.h ****                                                                            address 0. */
 630:/opt/XMClib/XMC_Peripheral_Library_v2.1.16/XMCLib/inc/xmc4_scu.h ****   XMC_SCU_BOOTMODE_ABM1       = (12UL << SCU_GENERAL_STCON_SWCON_Pos), /**< Boot from flash - fixed
 631:/opt/XMClib/XMC_Peripheral_Library_v2.1.16/XMCLib/inc/xmc4_scu.h ****                                                                             address 1. */
 632:/opt/XMClib/XMC_Peripheral_Library_v2.1.16/XMCLib/inc/xmc4_scu.h ****   XMC_SCU_BOOTMODE_FABM       = (14UL << SCU_GENERAL_STCON_SWCON_Pos), /**< fallback Alternate Boot
 633:/opt/XMClib/XMC_Peripheral_Library_v2.1.16/XMCLib/inc/xmc4_scu.h ****                                                                             Try ABM-0 then try ABM-
 634:/opt/XMClib/XMC_Peripheral_Library_v2.1.16/XMCLib/inc/xmc4_scu.h **** } XMC_SCU_BOOTMODE_t;
 635:/opt/XMClib/XMC_Peripheral_Library_v2.1.16/XMCLib/inc/xmc4_scu.h **** 
 636:/opt/XMClib/XMC_Peripheral_Library_v2.1.16/XMCLib/inc/xmc4_scu.h **** 
 637:/opt/XMClib/XMC_Peripheral_Library_v2.1.16/XMCLib/inc/xmc4_scu.h **** /**
 638:/opt/XMClib/XMC_Peripheral_Library_v2.1.16/XMCLib/inc/xmc4_scu.h ****  *  Defines various PLL modes of operation. These enums are used to configure \a VCOBYP bit of \a P
 639:/opt/XMClib/XMC_Peripheral_Library_v2.1.16/XMCLib/inc/xmc4_scu.h ****  *  User can choose either normal or prescalar mode by configuring VCOBYP bit.
 640:/opt/XMClib/XMC_Peripheral_Library_v2.1.16/XMCLib/inc/xmc4_scu.h ****  *  Use type \a XMC_SCU_PLL_MODE_t for accessing these enum parameters.
 641:/opt/XMClib/XMC_Peripheral_Library_v2.1.16/XMCLib/inc/xmc4_scu.h ****  */
 642:/opt/XMClib/XMC_Peripheral_Library_v2.1.16/XMCLib/inc/xmc4_scu.h **** typedef enum XMC_SCU_CLOCK_SYSPLL_MODE
 643:/opt/XMClib/XMC_Peripheral_Library_v2.1.16/XMCLib/inc/xmc4_scu.h **** {
 644:/opt/XMClib/XMC_Peripheral_Library_v2.1.16/XMCLib/inc/xmc4_scu.h ****   XMC_SCU_CLOCK_SYSPLL_MODE_DISABLED, /**< fPLL derived from fOSC and PLL operating in prescalar mo
 645:/opt/XMClib/XMC_Peripheral_Library_v2.1.16/XMCLib/inc/xmc4_scu.h ****   XMC_SCU_CLOCK_SYSPLL_MODE_NORMAL,  /**< fPLL derived from fVCO and PLL operating in normal mode. 
 646:/opt/XMClib/XMC_Peripheral_Library_v2.1.16/XMCLib/inc/xmc4_scu.h ****   XMC_SCU_CLOCK_SYSPLL_MODE_PRESCALAR /**< fPLL derived from fOSC and PLL operating in prescalar mo
 647:/opt/XMClib/XMC_Peripheral_Library_v2.1.16/XMCLib/inc/xmc4_scu.h **** } XMC_SCU_CLOCK_SYSPLL_MODE_t;
 648:/opt/XMClib/XMC_Peripheral_Library_v2.1.16/XMCLib/inc/xmc4_scu.h **** 
 649:/opt/XMClib/XMC_Peripheral_Library_v2.1.16/XMCLib/inc/xmc4_scu.h **** /** 
 650:/opt/XMClib/XMC_Peripheral_Library_v2.1.16/XMCLib/inc/xmc4_scu.h ****  *  Defines the source of the system clock and peripherals clock gating in SLEEP state.
 651:/opt/XMClib/XMC_Peripheral_Library_v2.1.16/XMCLib/inc/xmc4_scu.h ****  *  Use this enum as parameter of XMC_SCU_CLOCK_SetSleepConfig before going to SLEEP state.
 652:/opt/XMClib/XMC_Peripheral_Library_v2.1.16/XMCLib/inc/xmc4_scu.h ****  *
 653:/opt/XMClib/XMC_Peripheral_Library_v2.1.16/XMCLib/inc/xmc4_scu.h ****  *  The SLEEP state of the system corresponds to the SLEEP state of the CPU. The state is
 654:/opt/XMClib/XMC_Peripheral_Library_v2.1.16/XMCLib/inc/xmc4_scu.h ****  *  entered via WFI or WFE instruction of the CPU. In this state the clock to the CPU is
 655:/opt/XMClib/XMC_Peripheral_Library_v2.1.16/XMCLib/inc/xmc4_scu.h ****  *  stopped. Peripherals are only clocked when configured to stay enabled. 
 656:/opt/XMClib/XMC_Peripheral_Library_v2.1.16/XMCLib/inc/xmc4_scu.h ****  *
 657:/opt/XMClib/XMC_Peripheral_Library_v2.1.16/XMCLib/inc/xmc4_scu.h ****  *  Peripherals can continue to operate unaffected and eventually generate an event to
 658:/opt/XMClib/XMC_Peripheral_Library_v2.1.16/XMCLib/inc/xmc4_scu.h ****  *  wake-up the CPU. Any interrupt to the NVIC will bring the CPU back to operation. The
 659:/opt/XMClib/XMC_Peripheral_Library_v2.1.16/XMCLib/inc/xmc4_scu.h ****  *  clock tree upon exit from SLEEP state is restored to what it was before entry into SLEEP
 660:/opt/XMClib/XMC_Peripheral_Library_v2.1.16/XMCLib/inc/xmc4_scu.h ****  *  state.
 661:/opt/XMClib/XMC_Peripheral_Library_v2.1.16/XMCLib/inc/xmc4_scu.h ****  *  
 662:/opt/XMClib/XMC_Peripheral_Library_v2.1.16/XMCLib/inc/xmc4_scu.h ****  */
 663:/opt/XMClib/XMC_Peripheral_Library_v2.1.16/XMCLib/inc/xmc4_scu.h **** typedef enum XMC_SCU_CLOCK_SLEEP_MODE_CONFIG
 664:/opt/XMClib/XMC_Peripheral_Library_v2.1.16/XMCLib/inc/xmc4_scu.h **** {
 665:/opt/XMClib/XMC_Peripheral_Library_v2.1.16/XMCLib/inc/xmc4_scu.h ****   XMC_SCU_CLOCK_SLEEP_MODE_CONFIG_SYSCLK_FOFI = 0,  /**< fOFI used as system clock source in SLEEP 
 666:/opt/XMClib/XMC_Peripheral_Library_v2.1.16/XMCLib/inc/xmc4_scu.h ****   XMC_SCU_CLOCK_SLEEP_MODE_CONFIG_SYSCLK_FPLL = SCU_CLK_SLEEPCR_SYSSEL_Msk,  /**< fPLL used as syst
 667:/opt/XMClib/XMC_Peripheral_Library_v2.1.16/XMCLib/inc/xmc4_scu.h **** #if defined(USB0)
 668:/opt/XMClib/XMC_Peripheral_Library_v2.1.16/XMCLib/inc/xmc4_scu.h ****   XMC_SCU_CLOCK_SLEEP_MODE_CONFIG_DISABLE_USB = 0,  /**< USB clock disabled in SLEEP state */
 669:/opt/XMClib/XMC_Peripheral_Library_v2.1.16/XMCLib/inc/xmc4_scu.h ****   XMC_SCU_CLOCK_SLEEP_MODE_CONFIG_ENABLE_USB = SCU_CLK_SLEEPCR_USBCR_Msk,  /**< USB clock enabled i
 670:/opt/XMClib/XMC_Peripheral_Library_v2.1.16/XMCLib/inc/xmc4_scu.h **** #endif  
 671:/opt/XMClib/XMC_Peripheral_Library_v2.1.16/XMCLib/inc/xmc4_scu.h **** #if defined(SDMMC)
 672:/opt/XMClib/XMC_Peripheral_Library_v2.1.16/XMCLib/inc/xmc4_scu.h ****   XMC_SCU_CLOCK_SLEEP_MODE_CONFIG_DISABLE_SDMMC = 0,/**< SDMMC clock disabled in SLEEP state */
 673:/opt/XMClib/XMC_Peripheral_Library_v2.1.16/XMCLib/inc/xmc4_scu.h ****   XMC_SCU_CLOCK_SLEEP_MODE_CONFIG_ENABLE_SDMMC = SCU_CLK_SLEEPCR_MMCCR_Msk,/**< SDMMC clock enabled
 674:/opt/XMClib/XMC_Peripheral_Library_v2.1.16/XMCLib/inc/xmc4_scu.h **** #endif  
 675:/opt/XMClib/XMC_Peripheral_Library_v2.1.16/XMCLib/inc/xmc4_scu.h **** #if defined(ETH0)
 676:/opt/XMClib/XMC_Peripheral_Library_v2.1.16/XMCLib/inc/xmc4_scu.h ****   XMC_SCU_CLOCK_SLEEP_MODE_CONFIG_DISABLE_ETH = 0,  /**< ETH clock disabled in SLEEP state */
 677:/opt/XMClib/XMC_Peripheral_Library_v2.1.16/XMCLib/inc/xmc4_scu.h ****   XMC_SCU_CLOCK_SLEEP_MODE_CONFIG_ENABLE_ETH = SCU_CLK_SLEEPCR_ETH0CR_Msk,  /**< ETH clock enabled 
 678:/opt/XMClib/XMC_Peripheral_Library_v2.1.16/XMCLib/inc/xmc4_scu.h **** #endif  
 679:/opt/XMClib/XMC_Peripheral_Library_v2.1.16/XMCLib/inc/xmc4_scu.h **** #if defined(EBU)
 680:/opt/XMClib/XMC_Peripheral_Library_v2.1.16/XMCLib/inc/xmc4_scu.h ****   XMC_SCU_CLOCK_SLEEP_MODE_CONFIG_DISABLE_EBU = 0,  /**< EBU clock disabled in SLEEP state */
 681:/opt/XMClib/XMC_Peripheral_Library_v2.1.16/XMCLib/inc/xmc4_scu.h ****   XMC_SCU_CLOCK_SLEEP_MODE_CONFIG_ENABLE_EBU = SCU_CLK_SLEEPCR_EBUCR_Msk,  /**< EBU clock enabled i
 682:/opt/XMClib/XMC_Peripheral_Library_v2.1.16/XMCLib/inc/xmc4_scu.h **** #endif  
 683:/opt/XMClib/XMC_Peripheral_Library_v2.1.16/XMCLib/inc/xmc4_scu.h ****   XMC_SCU_CLOCK_SLEEP_MODE_CONFIG_DISABLED_CCU = 0,  /**< CCU clock disabled in SLEEP state */
 684:/opt/XMClib/XMC_Peripheral_Library_v2.1.16/XMCLib/inc/xmc4_scu.h ****   XMC_SCU_CLOCK_SLEEP_MODE_CONFIG_ENABLE_CCU = SCU_CLK_SLEEPCR_CCUCR_Msk,  /**< CCU clock enabled i
 685:/opt/XMClib/XMC_Peripheral_Library_v2.1.16/XMCLib/inc/xmc4_scu.h ****   XMC_SCU_CLOCK_SLEEP_MODE_CONFIG_DISABLED_WDT = 0,  /**< WDT clock disabled in SLEEP state */
 686:/opt/XMClib/XMC_Peripheral_Library_v2.1.16/XMCLib/inc/xmc4_scu.h ****   XMC_SCU_CLOCK_SLEEP_MODE_CONFIG_ENABLE_WDT = SCU_CLK_SLEEPCR_WDTCR_Msk,  /**< WDT clock enabled i
 687:/opt/XMClib/XMC_Peripheral_Library_v2.1.16/XMCLib/inc/xmc4_scu.h **** } XMC_SCU_CLOCK_SLEEP_MODE_CONFIG_t;
 688:/opt/XMClib/XMC_Peripheral_Library_v2.1.16/XMCLib/inc/xmc4_scu.h **** 
 689:/opt/XMClib/XMC_Peripheral_Library_v2.1.16/XMCLib/inc/xmc4_scu.h **** /** 
 690:/opt/XMClib/XMC_Peripheral_Library_v2.1.16/XMCLib/inc/xmc4_scu.h ****  *  Defines the source of the system clock and peripherals clock gating in DEEPSLEEP state.
 691:/opt/XMClib/XMC_Peripheral_Library_v2.1.16/XMCLib/inc/xmc4_scu.h ****  *  In addition the state of FLASH, PLL and PLLVCO during DEEPSLEEP state.
 692:/opt/XMClib/XMC_Peripheral_Library_v2.1.16/XMCLib/inc/xmc4_scu.h ****  *  Use this enum as parameter of XMC_SCU_CLOCK_SetDeepSleepConfig before going to DEEPSLEEP state.
 693:/opt/XMClib/XMC_Peripheral_Library_v2.1.16/XMCLib/inc/xmc4_scu.h ****  *
 694:/opt/XMClib/XMC_Peripheral_Library_v2.1.16/XMCLib/inc/xmc4_scu.h ****  *  The DEEPSLEEP state of the system corresponds to the DEEPSLEEP state of the CPU. The state is
 695:/opt/XMClib/XMC_Peripheral_Library_v2.1.16/XMCLib/inc/xmc4_scu.h ****  *  entered via WFI or WFE instruction of the CPU. In this state the clock to the CPU is
 696:/opt/XMClib/XMC_Peripheral_Library_v2.1.16/XMCLib/inc/xmc4_scu.h ****  *  stopped. 
 697:/opt/XMClib/XMC_Peripheral_Library_v2.1.16/XMCLib/inc/xmc4_scu.h ****  *
 698:/opt/XMClib/XMC_Peripheral_Library_v2.1.16/XMCLib/inc/xmc4_scu.h ****  *  In Deep Sleep state the OSC_HP and the PLL may be switched off. The wake-up logic in the NVIC i
 699:/opt/XMClib/XMC_Peripheral_Library_v2.1.16/XMCLib/inc/xmc4_scu.h ****  *  by a free-running clock. Peripherals are only clocked when configured to stay enabled. 
 700:/opt/XMClib/XMC_Peripheral_Library_v2.1.16/XMCLib/inc/xmc4_scu.h ****  *  Configuration of peripherals and any SRAM content is preserved.
 701:/opt/XMClib/XMC_Peripheral_Library_v2.1.16/XMCLib/inc/xmc4_scu.h ****  *  The Flash module can be put into low-power mode to achieve a further power reduction.
 702:/opt/XMClib/XMC_Peripheral_Library_v2.1.16/XMCLib/inc/xmc4_scu.h ****  *  On wake-up Flash module will be restarted again before instructions or data access is possible.
 703:/opt/XMClib/XMC_Peripheral_Library_v2.1.16/XMCLib/inc/xmc4_scu.h ****  *  Any interrupt will bring the system back to operation via the NVIC.The clock setup before
 704:/opt/XMClib/XMC_Peripheral_Library_v2.1.16/XMCLib/inc/xmc4_scu.h ****  *  entering Deep Sleep state is restored upon wake-up.
 705:/opt/XMClib/XMC_Peripheral_Library_v2.1.16/XMCLib/inc/xmc4_scu.h ****  */
 706:/opt/XMClib/XMC_Peripheral_Library_v2.1.16/XMCLib/inc/xmc4_scu.h **** typedef enum XMC_SCU_CLOCK_DEEPSLEEP_MODE_CONFIG
 707:/opt/XMClib/XMC_Peripheral_Library_v2.1.16/XMCLib/inc/xmc4_scu.h **** {
 708:/opt/XMClib/XMC_Peripheral_Library_v2.1.16/XMCLib/inc/xmc4_scu.h ****   XMC_SCU_CLOCK_DEEPSLEEP_MODE_CONFIG_SYSCLK_FOFI = 0,  /**< fOFI used as system clock source in DE
 709:/opt/XMClib/XMC_Peripheral_Library_v2.1.16/XMCLib/inc/xmc4_scu.h ****   XMC_SCU_CLOCK_DEEPSLEEP_MODE_CONFIG_SYSCLK_FPLL = SCU_CLK_DSLEEPCR_SYSSEL_Msk,  /**< fPLL used as
 710:/opt/XMClib/XMC_Peripheral_Library_v2.1.16/XMCLib/inc/xmc4_scu.h ****   XMC_SCU_CLOCK_DEEPSLEEP_MODE_CONFIG_FLASH_POWERDOWN = SCU_CLK_DSLEEPCR_FPDN_Msk,/**< Flash power 
 711:/opt/XMClib/XMC_Peripheral_Library_v2.1.16/XMCLib/inc/xmc4_scu.h ****   XMC_SCU_CLOCK_DEEPSLEEP_MODE_CONFIG_PLL_POWERDOWN = SCU_CLK_DSLEEPCR_PLLPDN_Msk,  /**<  Switch of
 712:/opt/XMClib/XMC_Peripheral_Library_v2.1.16/XMCLib/inc/xmc4_scu.h ****   XMC_SCU_CLOCK_DEEPSLEEP_MODE_CONFIG_VCO_POWERDOWN = SCU_CLK_DSLEEPCR_VCOPDN_Msk,  /**<  Switch of
 713:/opt/XMClib/XMC_Peripheral_Library_v2.1.16/XMCLib/inc/xmc4_scu.h **** #if defined(USB0)
 714:/opt/XMClib/XMC_Peripheral_Library_v2.1.16/XMCLib/inc/xmc4_scu.h ****   XMC_SCU_CLOCK_DEEPSLEEP_MODE_CONFIG_DISABLE_USB = 0,  /**< USB clock disabled in DEEPSLEEP state 
 715:/opt/XMClib/XMC_Peripheral_Library_v2.1.16/XMCLib/inc/xmc4_scu.h ****   XMC_SCU_CLOCK_DEEPSLEEP_MODE_CONFIG_ENABLE_USB = SCU_CLK_DSLEEPCR_USBCR_Msk,  /**< USB clock enab
 716:/opt/XMClib/XMC_Peripheral_Library_v2.1.16/XMCLib/inc/xmc4_scu.h **** #endif  
 717:/opt/XMClib/XMC_Peripheral_Library_v2.1.16/XMCLib/inc/xmc4_scu.h **** #if defined(SDMMC)
 718:/opt/XMClib/XMC_Peripheral_Library_v2.1.16/XMCLib/inc/xmc4_scu.h ****   XMC_SCU_CLOCK_DEEPSLEEP_MODE_CONFIG_DISABLE_SDMMC = 0,/**< SDMMC clock disabled in DEEPSLEEP stat
 719:/opt/XMClib/XMC_Peripheral_Library_v2.1.16/XMCLib/inc/xmc4_scu.h ****   XMC_SCU_CLOCK_DEEPSLEEP_MODE_CONFIG_ENABLE_SDMMC = SCU_CLK_DSLEEPCR_MMCCR_Msk,/**< SDMMC clock en
 720:/opt/XMClib/XMC_Peripheral_Library_v2.1.16/XMCLib/inc/xmc4_scu.h **** #endif  
 721:/opt/XMClib/XMC_Peripheral_Library_v2.1.16/XMCLib/inc/xmc4_scu.h **** #if defined(ETH0)
 722:/opt/XMClib/XMC_Peripheral_Library_v2.1.16/XMCLib/inc/xmc4_scu.h ****   XMC_SCU_CLOCK_DEEPSLEEP_MODE_CONFIG_DISABLE_ETH = 0,  /**< ETH clock disabled in DEEPSLEEP state 
 723:/opt/XMClib/XMC_Peripheral_Library_v2.1.16/XMCLib/inc/xmc4_scu.h ****   XMC_SCU_CLOCK_DEEPSLEEP_MODE_CONFIG_ENABLE_ETH = SCU_CLK_DSLEEPCR_ETH0CR_Msk,  /**< ETH clock ena
 724:/opt/XMClib/XMC_Peripheral_Library_v2.1.16/XMCLib/inc/xmc4_scu.h **** #endif  
 725:/opt/XMClib/XMC_Peripheral_Library_v2.1.16/XMCLib/inc/xmc4_scu.h **** #if defined(EBU)
